(dp0
S'http://soundcloud.com/muterecords/apparat-black-water'
p1
F1312146686.766149
sS'http://www.virtualchaos.co.uk/blog/2010/07/29/for-hecuba/'
p2
F1312286481.4126971
sVhttp://dlanham.com/ui/sticker/
p3
F1312146019.466435
sS'http://www.zachbeauvais.com/archives/tablets/'
p4
F1312286651.0158899
sS'http://www.talisaspire.com/'
p5
F1312146758.8260951
sS'http://yfrog.com/gzfiwrp'
p6
F1312288552.9666669
sS'http://www.twitlonger.com/show/767scv'
p7
F1312287441.0864439
sS'http://julianhigman.com/blog/2009/04/06/cultural-agoraphobia/'
p8
F1312286580.174969
sS'http://www.tweekly.fm/twitter/iand'
p9
F1312287198.0727661
sS'http://blogs.ecs.soton.ac.uk/data/2011/04/01/pdf-selected-as-interchange-format/'
p10
F1312146292.047708
sS'http://www.extremetech.com/internet/91176-adobe-edge-completing-the-flash-html-cycle'
p11
F1312287319.238543
sS'http://malcolmlandon.wordpress.com/2007/11/15/nintendo-not-holding-stock-back/'
p12
F1312286426.293695
sS'http://blog.iandavis.com/2011/03/21/idiomatic-json/'
p13
F1312286395.3050849
sS'http://wonderfulworldofmrc.blogspot.com/2005/11/john-battelle-discusses-building.html'
p14
F1312286453.725287
sS'http://www.twitlonger.com/show/767s8o'
p15
F1312287442.214541
sS'http://open.spotify.com/track/6SBrXbSNkPi9BYxjgZoi9a'
p16
F1312287337.8761201
sS'http://www.daveyp.com/cgi-bin/crystal/ball.pl?1299246700'
p17
F1312146371.364789
sVhttp://code.google.com/p/microblog-purple/
p18
F1312146381.76583
sS'http://thenextweb.com/media/2011/07/30/how-musicians-are-making-money-by-returning-to-their-roots/?utm_source=feedburner&utm_medium=feed&utm_campaign=Feed:+TheNextWeb+(The+Next+Web+All+Stories)&utm_content=Google+Reader'
p19
F1312146127.419446
sS'http://julianhigman.com/blog/2011/04/04/enable-trackpad-coasting-in-ubuntu/'
p20
F1312286574.9823301
sS'http://www.worldtimebuddy.com/'
p21
F1312145963.614367
sS'http://brightlemon.com/blog/open-government-visualisation-tools-open-data-resources-and-application-examples'
p22
F1312146664.0854681
sS'http://www.regonline.com/Register/Checkin.aspx?EventID=962797'
p23
F1312146395.534126
sS'http://www.justinleavesley.com/journal/2005/8/9/semantic-superpositions.html'
p24
F1312286544.0550239
sVhttp://www.wearmouth.demon.co.uk/
p25
F1312145907.320966
sVhttp://memeburn.com/2010/11/humans-vs-machines-aggregation-vs-curation/
p26
F1312145972.7197289
sS'http://www.youtube.com/verify_age?next_url=http%3A//www.youtube.com/watch%3Fv%3DmGOY0-LaV7Y%26list%3DSL'
p27
F1312145936.6970911
sS'http://data.gov.uk/organogram'
p28
F1312146265.590539
sS'http://blog.kasabi.com/2011/07/28/open-gov-hackday/'
p29
F1312146657.7553301
sVhttp://www.youtube.com/watch?v=xwBK31tC5QM
p30
F1312145935.189477
sS'http://opencompute.org'
p31
F1312146378.1801169
sVhttp://code.google.com/p/pyqrnative/
p32
F1312146009.0609651
sS'http://blog.lboro.ac.uk/mtrlc/'
p33
F1312146769.390806
sS'http://googlecode.blogspot.com/2011/07/page-speed-service-web-performance.html'
p34
F1312146229.5432119
sS'http://open.spotify.com/user/kierdavis/playlist/5gOp7x69F9StEymPVOgqeE'
p35
F1312146067.3211751
sS'http://open.vocab.org/docs/phoneNumber.html'
p36
F1312146274.9602809
sS'http://www.zachbeauvais.com/archives/american-perspective/'
p37
F1312286652.220716
sS'http://www.wired.co.uk/news/archive/2011-07/27/children-as-scientists'
p38
F1312146303.2488329
sS'http://www.barackobama.com'
p39
F1312287410.1999531
sS'http://m.theatlantic.com/politics/archive/2011/07/the-chart-that-should-accompany-all-discussions-of-the-debt-ceiling/242484/'
p40
F1312146332.0764561
sS'http://wonderfulworldofmrc.blogspot.com/2007/01/perfect-desktop.html'
p41
F1312286451.541465
sS'http://www.justinrummel.com/'
p42
F1312146445.381222
sS'http://slashdotrobot.wordpress.com/2008/04/12/%e6%97%a5%e6%9c%ac%e5%9b%bd-tokyo-international-forum/'
p43
F1312286568.904083
sS'http://ckan.net/package/data-incubator-metoffice'
p44
F1312287250.862133
sS'http://wonderfulworldofmrc.blogspot.com/2007/03/join-revolution-20-minute-union.html'
p45
F1312286444.840935
sS'http://www.zachbeauvais.com/archives/frypaper-an-interview-with-the-man-behind-stephen-frys-ipad-app/'
p46
F1312286664.5797319
sS'http://t.co/EF'
p47
F1312287457.3052149
sS'http://itoccurs.wordpress.com/2007/10/28/a-man-in-a-fish-tank-and-the-golden-gate-bridge/'
p48
F1312286626.54475
sS'http://lrt.mmu.ac.uk/w2c/2011/07/27/our-new-moodle-theme/'
p49
F1312146214.5545731
sVhttps://www.develer.com/trac/dspython/browser/trunk/libnds-src-20070503/include/nds/arm9?rev=10
p50
F1312145935.936049
sS'http://linkedmanchester.org'
p51
F1312146265.002435
sS'http://itoccurs.wordpress.com/2007/10/29/clam-chowder-and-cable-cars/'
p52
F1312286625.538749
sS'http://en.wikipedia.org/wiki/John_Craven'
p53
F1312146130.5516469
sS'http://wonderfulworldofmrc.blogspot.com/2007/03/what-web20-developer-networks-should-be.html'
p54
F1312286443.143822
sVhttp://www.youtube.com/watch?v=zzfQwXEqYaI&feature=related
p55
F1312145929.2685039
sS'http://arstechnica.com/apple/news/2011/08/ios-devs-put-out-a-call-to-unite-against-lodsys-other-patent-trolls.ars'
p56
F1312287197.0675039
sS'http://dynamicorange.com/2010/06/24/youre-not-the-one-and-only/'
p57
F1312286412.288244
sS'http://www.twitlonger.com/show/767s4s'
p58
F1312287452.7924061
sS'http://www.zachbeauvais.com/archives/injury-lessons/'
p59
F1312286648.7485681
sVhttp://www.getskeleton.com/
p60
F1312146003.8005531
sS'http://www.wikia.com/Wikia'
p61
F1312287456.018544
sVhttp://blogs.discovermagazine.com/cosmicvariance/2011/07/13/free-will-is-as-real-as-baseball/
p62
F1312146008.0299489
sS'http://www.zdnet.com/blog/hardware/amazons-kindle-tablet-doesnt-need-to-be-an-ipad-killer-to-be-a-winner/13939'
p63
F1312146209.3832979
sVhttp://code.google.com/p/porpoise/
p64
F1312145980.640825
sVhttp://inspector.sindice.com/
p65
F1312145962.8230469
sVhttp://www.ftrain.com/wwic.html
p66
F1312145969.0534251
sS'http://www.simpleandusable.com/news/how-to-remove-the-faux-leather-in-ical-for-os-x-lion.html'
p67
F1312287316.0679491
sS'http://twitpic.com/5xs1vy'
p68
F1312146353.7121201
sS'http://soundcloud.com/radiohead/03-separator-four-tet-rmx'
p69
F1312146690.636544
sVhttp://www.fpga4fun.com/FPGAsoftware2.html
p70
F1312145916.488323
sS'http://beobal.com/blog/2006/11/geeking-with-greg'
p71
F1312286439.9867201
sS'http://malcolmlandon.wordpress.com/2007/11/12/a-german-wii-for-christmas/'
p72
F1312286429.0523801
sS'http://www.guardian.co.uk/environment/bike-blog/2011/aug/01/cyclist-take-the-lane?CMP=twt_gu'
p73
F1312288539.579972
sVhttp://www.diycalculator.com/popup-m-hrrgcomp.shtml
p74
F1312145945.2823279
sS'http://google-latlong.blogspot.com/2011/07/catch-london-underground-with-google.html'
p75
F1312146695.073386
sS'http://blog.iandavis.com/2010/12/06/back-to-basics/'
p76
F1312286396.9937871
sS'http://blogs.worldbank.org/developmenttalk/open-data-is-not-enough-0'
p77
F1312146216.123095
sS'http://www.zachbeauvais.com/archives/a-few-desert-images/'
p78
F1312286663.2386379
sS'http://www.virtualchaos.co.uk/blog/2009/02/08/linked-data-and-scientific-publishing/'
p79
F1312286531.1330831
sVhttp://www.slideshare.net/zbeauvais/openday-kasabi
p80
F1312146029.064368
sS'http://www.guardian.co.uk/society/2011/jul/19/nhs-services-open-to-competition?CMP=twt_gu'
p81
F1312146152.1523509
sS'http://t.co/8mzHnzO\xe2\x80\x9d'
p82
F1312287279.3200231
sS'http://blog.iandavis.com/2011/07/10/ordnance-survey-linksets-on-kasabi/'
p83
F1312286390.917768
sVhttp://www.slideshare.net/zbeauvais/commercial-break-linked-data-for-business
p84
F1312146028.4310751
sS'http://semanticweb.com/thoughts-on-google-plus-the-magic-isnt-social-its-semantic_b21852'
p85
F1312146146.1620879
sVhttp://www.sjjb.co.uk/mapicons/contactsheet.php
p86
F1312146010.1342261
sS'http://julianhigman.com/blog/2009/05/14/stefan-tilkov-talks-about-rest/'
p87
F1312286579.7788451
sS'http://www.macstories.net/mac/os-x-lion-installation-guide-boot-discs-and-qa/'
p88
F1312287417.3566599
sS'http://www.virtualchaos.co.uk/blog/2009/02/22/anime-reviews/'
p89
F1312286524.6794789
sS'http://www.justinleavesley.com/journal/2008/8/27/edge-economy.html'
p90
F1312286535.1012111
sS'http://www.astilla.co.uk/blog/cinema-masses'
p91
F1312286462.612252
sS'http://collabor8now.com/2011/07/libraries-innovating-with-linked-data/#linkeddata'
p92
F1312287400.1444139
sS'http://julianhigman.com/blog/2009/08/10/agile-coaching-new-book-from-rachel-davies/'
p93
F1312286577.1800931
sS'http://www.virtualchaos.co.uk/blog/2009/07/19/combining-minimising-and-distributing-javascripts/'
p94
F1312286505.2891819
sS'http://labs.data.gov.uk/lod/location/50.902093,\r\n\t-1.398722/driving-test-centre'
p95
F1312288153.218358
sS'http://yfrog.com/kixxzacj'
p96
F1312146682.3059621
sVhttp://labs.nationalarchives.gov.uk/wordpress/index.php/2011/07/datasets/
p97
F1312145991.04774
sVhttp://www.iconeden.com/icon/bright-free-stock-iconset.html
p98
F1312146011.474623
sS'http://www.bbc.co.uk/blogs/markkermode/2011/07/smells_like_smurf_spirit.html'
p99
F1312146199.2614281
sVhttp://www.slideshare.net/sjbrinker/data-web-marketing
p100
F1312146023.7365971
sS'http://malcolmlandon.wordpress.com/2007/09/05/i-am-a-facebook-widower/'
p101
F1312286430.7095699
sS'http://dynamicorange.com/2010/01/27/ground-roundup-of-new-ereaders-at-ces-on-cnn/'
p102
F1312286419.0272119
sS'http://blog.kasabi.com/2011/07/26/featured-datasets-nhs-organizations-and-performance-data/'
p103
F1312146661.2402871
sVhttp://data.gov.uk/dataset/nptg
p104
F1312146001.7874229
sVhttp://vintagefuture.tumblr.com/
p105
F1312145966.7027049
sVhttp://t.co/Overview.html.utf-8
p106
F1312146733.1044979
sVhttp://www.solving-math-problems.com/calculate-square-root.html#Detail
p107
F1312145951.9237211
sS'http://itoccurs.wordpress.com/2008/04/01/perth-a-welcoming-state-capitol/'
p108
F1312286623.3898411
sVhttp://worrydream.com/Tangle/
p109
F1312145994.5784791
sS'http://www.zachbeauvais.com/archives/shropshire-photos/'
p110
F1312286668.100194
sS'http://www.birminghampost.net/birmingham-business/birmingham-business-news/legal-business/2011/03/11/wragge-co-advises-on-18m-talis-deal-65233-28321104/'
p111
F1312146368.92992
sVhttp://www.youtube.com/watch?v=l0Lm9moEoH0
p112
F1312145933.6237321
sS'http://dynamicorange.com/2010/11/03/web-of-data/'
p113
F1312286407.2835541
sS'http://mac.github.com/'
p114
F1312146361.4635711
sS'http://www.youtube.com/watch?v=XWcIhSCJ4BE'
p115
F1312287285.5978191
sS'http://wonderfulworldofmrc.blogspot.com/2005/10/how-to-build-software.html'
p116
F1312286455.172138
sS'http://www.virtualchaos.co.uk/blog/2010/06/27/how-to-get-people-to-paying-for-content/'
p117
F1312286483.1196129
sS'http://vimeo.com/23418377'
p118
F1312287340.4058869
sS'http://wonderfulworldofmrc.blogspot.com/2005/10/less-is-more.html'
p119
F1312286456.7411709
sS'http://www.virtualchaos.co.uk/blog/2010/12/16/diana-laufenberg-how-to-learn-from-mistakes/'
p120
F1312286479.749789
sS'http://www.virtualchaos.co.uk/blog/2009/08/28/dan-pink-on-the-surprising-science-of-motivation/'
p121
F1312286501.305423
sS'http://blog.pachube.com/2011/05/crowdsourcing-open-data-evolving-into.html'
p122
F1312146550.70753
sS'http://gowalla.com/checkins/40632175'
p123
F1312146141.292506
sS'http://www.eventbrite.com/event/1906312833/estw'
p124
F1312287317.4657459
sVhttp://www.slideshare.net/ldodds/kasabi-linked-data-marketplace
p125
F1312146027.8056221
sVhttp://www.youtube.com/watch?v=ZD8RXjhTKZg&feature=related
p126
F1312145932.4256999
sS'http://informationtakesover.co.uk/2010/02/a-little-bash-deployment-assistant/'
p127
F1312286642.408855
sVhttp://data.gov.uk/dataset/nptdr
p128
F1312146001.9667959
sS'http://www.wired.com/wiredscience/2011/07/genome-structure/'
p129
F1312146075.7390571
sVhttp://free.pages.at/easyfilter/bresenham.html
p130
F1312145907.59638
sS'http://paulrobertlloyd.com/2011/07/the_skys_the_limit/'
p131
F1312146301.9447629
sS'http://www.talisaspire.com/2011/07/12/campus-edition-new-features-april-june-2011/'
p132
F1312146770.3567581
sS'http://www.youtube.com/watch?v=C_Pk5EE5QV8'
p133
F1312146129.4247551
sS'http://www.zachbeauvais.com/archives/nodalities-and-facebooks-david-recordon/'
p134
F1312286662.076411
sS'http://www.virtualchaos.co.uk/blog/2009/05/19/seth-godin-on-the-tribes-we-lead/'
p135
F1312286518.249862
sS'http://informationtakesover.co.uk/2010/04/an-easter-birdy/'
p136
F1312286638.7898259
sVhttp://www.flickr.com/photos/-2x4-/sets/72157622387899624/with/3971739850/
p137
F1312145970.3295131
sS'http://soundcloud.com/nosajthing'
p138
F1312146688.7815969
sS'http://www.astilla.co.uk/blog/great-service-tsohostcouk'
p139
F1312286464.181186
sS'http://www.justinleavesley.com/journal/2006/11/26/ecosystem-1-physical-technology-meets-social-technology.html'
p140
F1312286542.173646
sS'http://www.virtualchaos.co.uk/blog/2009/05/19/im-married/'
p141
F1312286516.642482
sS'http://tabs.ultimate-guitar.com/m/misc_unsigned_bands/ross_singer_-_riff1_btab.htm'
p142
F1312146363.3366899
sS'http://musicmachinery.com/2011/05/14/how-good-is-googles-instant-mix/'
p143
F1312146549.867296
sS'http://www.virtualchaos.co.uk/blog/2010/04/03/derek-sivers-how-to-start-a-movement/'
p144
F1312286494.7865319
sS'http://www.businessinsider.com/6-ways-to-make-your-tv-smarter-2010-12'
p145
F1312287431.238622
sS'http://beobal.com/blog/2007/05/xtech'
p146
F1312286438.4418371
sS'http://www.legislation.gov.uk/data.htm'
p147
F1312146103.6579001
sVhttp://twitpic.com/595j2k
p148
F1312146070.914346
sVhttp://wiki.dbpedia.org/Downloads36
p149
F1312146679.3038449
sS'http://www.bbc.co.uk/news/uk-14070733'
p150
F1312146367.592536
sS'http://www.talisaspire.com/2011/07/21/related-content-widget/'
p151
F1312146760.428885
sS'http://www.astilla.co.uk/blog/switched-drupal'
p152
F1312286465.209383
sVhttp://www.freesound.org/index.php
p153
F1312145990.181982
sVhttp://www.slideshare.net/bengee/rdf-and-sparql-for-php-developers-at-new-york-semantic-web-meetup
p154
F1312146025.274966
sVhttp://notes.3kbo.com/kasabi
p155
F1312145954.7934339
sVhttp://www.oucs.ox.ac.uk/oxpoints/
p156
F1312145979.6643541
sVhttp://charliepark.org/slopegraphs/
p157
F1312146008.6683681
sVhttp://www.youtube.com/watch?v=jO0VLouJFNQ
p158
F1312145906.1007221
sS'http://blog.iandavis.com/2010/12/06/to-wordpress/'
p159
F1312286398.1064689
sS'http://www.zachbeauvais.com/archives/ebook-data/'
p160
F1312286660.75652
sVhttp://lin-clark.com/blog/two-meanings-semantics-html5
p161
F1312145992.699301
sS'http://www.delicious.com/zachbeauvais'
p162
F1312286671.1198931
sS'http://slashdotrobot.wordpress.com/2008/04/13/throttle-bodies/'
p163
F1312286565.9617319
sVhttp://semanticweb.com/talis%E2%80%99s-kasabi-enters-public-beta_b20332
p164
F1312145957.1538179
sS'http://beobal.com/blog/2007/08/just-for-dave'
p165
F1312286437.6828401
sVhttp://excamera.com/sphinx/gameduino/
p166
F1312145934.517066
sS'http://julianhigman.com/blog/2010/11/05/php-5-3-and-the-global-keyword/'
p167
F1312286575.369626
sS'http://slashdotrobot.wordpress.com/2008/04/12/%e6%97%a5%e6%9c%ac%e5%9b%bd-tsukiji/'
p168
F1312286567.9420309
sVhttp://go-lang.cat-v.org/
p169
F1312146005.7789741
sS'http://reviews.cnet.co.uk/software-and-web-apps/how-to-create-ebooks-using-os-x-lion-50004548/prices/'
p170
F1312146212.521271
sS'http://www.virtualchaos.co.uk/blog/2010/06/21/invictus/'
p171
F1312286488.0182681
sS'http://www.virtualchaos.co.uk/blog/2009/09/18/beyond-web-2-0-how-rdfa-can-help-democratise-data-on-the-web/'
p172
F1312286499.6979871
sS'http://www.lucidimagination.com/blog/2011/07/28/dont-use-java-7-for-anything/'
p173
F1312146099.008857
sS'http://www.businessinsider.com/fyi-linkedin-is-using-your-photo-and-your-actions-in-social-advertising-2011-7'
p174
F1312287239.987412
sS'http://open.spotify.com/track/1I0hFGsgA5pJqutFzwTNQf'
p175
F1312146069.7730711
sS'http://www.virtualchaos.co.uk/blog/2009/10/19/death-note-a-modern-take-on-platos-gyges-ring/'
p176
F1312286496.46313
sS'http://www.zachbeauvais.com/archives/setting-aside-religion/'
p177
F1312286659.67678
sS'http://www.justinleavesley.com/journal/2005/8/12/the-platform-is-dead-long-live-the-platform.html'
p178
F1312286542.977849
sVhttp://t.co/0YTocAz
p179
F1312146743.934092
sS'http://www.talisaspire.com/2011/07/11/lancaster-university-selects-talis-aspire-campus-edition/'
p180
F1312146771.175833
sS'http://dynamicorange.com/2010/06/22/semtech-2010-san-francisco/'
p181
F1312286413.8986709
sS'http://slashdotrobot.wordpress.com/2008/03/22/alfa-update/'
p182
F1312286570.8071799
sS'http://beobal.com/blog/2007/01/flickr-machine-tags'
p183
F1312286438.7457199
sS'http://dilettantes.code4lib.org/blog/2010/11/linked-marc-codes/'
p184
F1312286548.9740369
sVhttp://www.wildbunny.co.uk/blog/2011/04/06/physics-engines-for-dummies/
p185
F1312145939.352947
sS'http://damnyouautocorrect.com/10268/locked-up-2/'
p186
F1312287467.044915
sS'http://wonderfulworldofmrc.blogspot.com/2007/01/well-im-back.html'
p187
F1312286452.9993529
sS'http://itoccurs.wordpress.com/2008/04/14/canberra-to-sydney-by-the-scenic-route/'
p188
F1312286618.708101
sS'http://poss.gliderlab.com/w/page/2018537/FrontPage'
p189
F1312145981.861541
sS'http://blog.iandavis.com/2011/04/06/rdf-json-usability/'
p190
F1312286394.2984979
sS'http://wonderfulworldofmrc.blogspot.com/2005/10/joining-together-semantic-networks-and.html'
p191
F1312286456.036916
sS'http://wonderfulworldofmrc.blogspot.com/2005/10/e-learning-20.html'
p192
F1312286455.546591
sVhttp://chem-bla-ics.blogspot.com/2011/07/chempedia-rdf-3-uploading-data-to.html
p193
F1312145955.6204679
sS'http://www.virtualchaos.co.uk/blog/2009/02/15/drop-in-javascript-performance/'
p194
F1312286529.5277951
sS'http://www.youtube.com/watch?v=ZucJAkzCNq8&feature=share'
p195
F1312146655.6369121
sVhttp://www.youtube.com/watch?v=486QvybwTe0&feature=related
p196
F1312145931.8509459
sS'http://business.financialpost.com/2011/07/28/u-s-balance-now-less-than-apple-cash/'
p197
F1312146197.7180059
sS'http://kwijibo.talis.com/metoffice/'
p198
F1312287251.617687
sS'http://www.zachbeauvais.com/archives/what-is-the-point-of-decaff/'
p199
F1312286670.062295
sS'http://www.virtualchaos.co.uk/blog/2009/06/11/yusuf-islam-the-cat-of-old/'
p200
F1312286511.8294449
sS'http://www.virtualchaos.co.uk/blog/2009/05/25/anime-reviews-afro-samurai-resurrection-plus-more/'
p201
F1312286515.0448439
sS'http://www.virtualchaos.co.uk/blog/2009/02/22/2009-an-update/'
p202
F1312286526.2779779
sS'http://www.volkszone.co.uk/brian/PIKEYS.jpg'
p203
F1312146693.7868941
sS'http://consulting.talis.com/2011/07/significant-bibliographic-linked-data-release-from-the-british-library/?utm_source=twitterfeed&utm_medium=twitter'
p204
F1312287420.666599
sS'http://elidourado.com/blog/et-and-debt-ceiling/'
p205
F1312287199.648783
sS'http://www.justinleavesley.com/journal/2005/8/10/will-the-real-semantic-web-please-stand-up.html'
p206
F1312286543.419759
sVhttp://www.youtube.com/watch?v=dJsDFij0JRY
p207
F1312146149.1766059
sS'http://itoccurs.wordpress.com/2008/04/14/sydney-and-then-back-again/'
p208
F1312286617.7835889
sVhttp://www.slideshare.net/ldodds/creating-apis-over-rdf
p209
F1312146027.171473
sS'http://blog.josema.net/2011/07/24/transition-wf/'
p210
F1312146116.5388319
sS'http://c561635.r35.cf2.rackcdn.com/11-944-WP-students-at-heart.pdf'
p211
F1312146773.5616069
sS'http://blog.kasabi.com/2011/07/14/featured-dataset-foodista/'
p212
F1312146435.6052859
sVhttp://uservoice.com/
p213
F1312145973.4989851
sS'http://dynamicorange.com/2010/01/29/left-wondering/'
p214
F1312286417.534688
sVhttp://youtu.be/qt
p215
F1312146139.64837
sS'http://www.tweekly.fm/twitter/kierdavis'
p216
F1312146066.178407
sS'http://www.guardian.co.uk/commentisfree/2011/jul/24/charlie-brooker-norway-mass-killings?CMP=twt_iph'
p217
F1312146226.0194249
sS'http://dynamicorange.com/2010/02/22/building-a-simple-http-to-z39-50-gateway-using-yaz4j-and-tomcat-index-data/'
p218
F1312286416.0543931
sVhttp://speckyboy.com/2010/01/21/free-icon-set-for-designers-the-go-green-icon-set-108-icons/
p219
F1312146040.295671
sS'http://amzn.to/rit5DT'
p220
F1312287460.8350911
sS'http://spacetrek.tumblr.com/'
p221
F1312287341.2244761
sVhttp://www.essortment.com/5-recipes-homemade-chocolate-filling-13976.html
p222
F1312145963.7898469
sS'http://wonderfulworldofmrc.blogspot.com/2005/08/folksonomies-fascinate-me.html'
p223
F1312286457.5090411
sS'http://blog.iandavis.com/2011/07/07/in-search-of-ambiguity/'
p224
F1312286391.8957679
sS'http://wonderfulworldofmrc.blogspot.com/2005/11/3d-interaction-for-future.html'
p225
F1312286454.4249949
sS'http://www.twitlonger.com/show/767sqr'
p226
F1312287433.3225889
sVhttp://www.thedesignwork.com/45-free-small-symbols-vector-icon-sets/
p227
F1312146018.9041491
sS'http://twitpic.com/5z8uhc'
p228
F1312287214.5157499
sS'http://wonderfulworldofmrc.blogspot.com/2007/02/forget-everything-i-said-last-time.html'
p229
F1312286445.7869711
sS'http://wonderfulworldofmrc.blogspot.com/2007/03/masters-of-scrum.html'
p230
F1312286443.9863949
sVhttp://deck.ly/~jgLSL
p231
F1312146390.207164
sS'http://malcolmlandon.wordpress.com/2007/11/15/my-wii-woe-is-over/'
p232
F1312286425.447273
sS'http://www.thebitsource.com/featured-posts/rackspace-cloud-servers-versus-amazon-ec2-performance-analysis/'
p233
F1312146450.6974461
sS'http://www.zachbeauvais.com/archives/what-is-your-view-on-psychics-who-claim-to-be-able-to-relay-messages-from-dead-relatives/'
p234
F1312286669.081743
sS'http://www.epsiplatform.eu/news/news/uk_government_plans_open_data_consultation/'
p235
F1312287407.883213
sS'http://www.readwriteweb.com/archives/farewell_flash_adobe_launches_html5_web_animations_tool_adobe_edge.php'
p236
F1312287234.389739
sS'http://www.astilla.co.uk/2009/08/truecall'
p237
F1312286472.3994319
sS'http://www.bbc.co.uk/news/technology-14322957?utm_source=twitterfeed&utm_medium=twitter'
p238
F1312146133.674798
sS'http://www.justinleavesley.com/journal/2008/8/22/infinity-in-a-grain-of-sand.html'
p239
F1312286535.6440051
sVhttp://graphite.ecs.soton.ac.uk/stuff2rdf/
p240
F1312145989.6305311
sS'http://consulting.talis.com/2011/07/should-seo-focus-in-on-linked-data/'
p241
F1312146136.775197
sS'http://footytweets.com/leicester_city/news/441002'
p242
F1312287425.5726421
sVhttp://blog.okfn.org/2011/06/25/open-data-and-kasabi/
p243
F1312145958.5676329
sS'http://slashdotrobot.wordpress.com/2008/05/18/two-weeks-two-new-cars-oops/'
p244
F1312286563.8755341
sS'http://itoccurs.wordpress.com/2008/03/30/the-right-choice/'
p245
F1312286624.5804441
sS'http://www.buzzfeed.com/awesomer/50-company-names-you-probably-didnt-know-the-orig'
p246
F1312146734.6327519
sS'http://julianhigman.com/blog/2010/09/27/installing-ruby-active-record-on-ubuntu-10-04/'
p247
F1312286575.8134911
sVhttp://deck.ly/~0Y3Tm
p248
F1312146387.86654
sS'http://dilettantes.code4lib.org/blog/2010/07/what-we-talk-about-when-we-talk-about-love/'
p249
F1312286554.142077
sS'http://www.mediamolecule.com/lab/article/doing_exactly_the_right_amount_of_work/?utm_source=feedburner&utm_medium=twitter&utm_campaign=Feed%3A+MmLab+The+Lab'
p250
F1312146219.048703
sS'http://malcolmlandon.wordpress.com/2007/11/14/whos-cashing-in-on-the-wii-shortage/'
p251
F1312286427.1184931
sS'http://blog.brooksengland.com/wps/brooks-is-closed/'
p252
F1312146128.5677371
sS'http://wonderfulworldofmrc.blogspot.com/2005/08/now-thats-what-i-call-technology.html'
p253
F1312286457.8933589
sVhttp://fantasticlife.posterous.com/a-comment-for-node114
p254
F1312146266.6688221
sS'http://blog.iandavis.com/2011/07/18/kasabi-transit-data-for-new-york-city/'
p255
F1312146674.574492
sVhttp://www.oercommons.org/courses/farallon-plate-remnants
p256
F1312145994.0114181
sS'http://goods.us.marketgid.com/goods/1405/477092/'
p257
F1312146681.042438
sS'http://www.virtualchaos.co.uk/blog/2009/07/19/were-hiring/'
p258
F1312286508.4474199
sS'http://semanticweb.com/jeni-tennison-on-web-development_b21803'
p259
F1312287394.997534
sS'http://www.independent.co.uk/sport/football/news-and-comment/click-and-buy-how-scouting-embraced-the-21st-century-2326368.html'
p260
F1312146387.1401491
sS'http://wonderfulworldofmrc.blogspot.com/2005/10/goggle-tagging.html'
p261
F1312286456.395231
sS'http://www.astilla.co.uk/blog/updated-aspire-list-editor'
p262
F1312286463.5606201
sVhttp://www.youtube.com/watch?v=52TxGLYmHmg
p263
F1312145993.3939309
sS'http://www.zachbeauvais.com/archives/ipad-new/'
p264
F1312286665.8730431
sS'https://www.icloud.com/'
p265
F1312287335.1205921
sVhttp://www.arduino.cc/cgi-bin/yabb2/YaBB.pl?num=1250658196
p266
F1312145915.742892
sS'http://www.itworld.com/it-managementstrategy/187543/when-google-kills-your-account-what-happens-your-android-phone'
p267
F1312146300.738754
sS'http://wonderfulworldofmrc.blogspot.com/2007/03/reader-development-podcast-finally.html'
p268
F1312286443.585999
sS'http://www.daveyp.com/cgi-bin/crystal/ball.pl?1299246763'
p269
F1312146372.899226
sS'http://data.gov.uk/organogram/cabinet-office'
p270
F1312146262.6987469
sVhttp://www.visualdataweb.org/tfacet.php
p271
F1312146266.9236741
sS'http://www.gameinformer.com/b/news/archive/2011/07/30/littlebigplanet-2-getting-toy-story-levels-and-costumes.aspx'
p272
F1312146166.0845699
sS'http://www.zdnet.com/blog/violetblue/how-the-new-8216protecting-children-bill-puts-you-at-risk/590'
p273
F1312287333.8084061
sS'http://www.astilla.co.uk/2009/12/kunisada-courtesan-japanese-woodblock-prints'
p274
F1312286471.2370429
sS'http://dilettantes.code4lib.org/blog/2009/07/i-went-as-far-as-losing-slee/'
p275
F1312286559.5517271
sVhttp://en.wikipedia.org/wiki/Help:Wiki_markup
p276
F1312145936.170429
sS'http://dilettantes.code4lib.org/blog/2010/08/faceted-search-on-a-shoestring/'
p277
F1312286552.7076721
sS'http://techcrunch.com/2011/07/10/building-an-enterprise-software-company-that-doesnt-suck/'
p278
F1312146342.2578881
sS'http://beobal.com/blog/2007/01/five-whole-things'
p279
F1312286438.98737
sS'http://informationtakesover.co.uk/2010/10/blog-in-blog-versions-in-the-wild/'
p280
F1312286633.9141891
sVhttp://mbostock.github.com/d3/
p281
F1312146009.8218369
sS'http://beobal.com/blog/2006/11/under-the-radar'
p282
F1312286439.6465161
sS'http://malcolmlandon.wordpress.com/2007/11/14/bbc-reporting-wii-woo/'
p283
F1312286428.2408371
sS'http://www.virtualchaos.co.uk/blog/2009/02/22/the-palestinian-perspective-what-the-world-looks-like-from-the-west-bank/'
p284
F1312286527.8891211
sVhttp://www.youtube.com/watch?v=-jLxE_TP4SQ&feature
p285
F1312146120.2646101
sVhttp://www.allaboutcircuits.com/vol_4/chpt_11/3.html
p286
F1312145908.955467
sS'https://picasaweb.google.com/lh/photo/cArakN1Jan3SXZsl60OxDA'
p287
F1312288549.512321
sS'http://slashdotrobot.wordpress.com/2007/11/18/interior-tidyup-part-one/'
p288
F1312286572.5233879
sVhttp://www.squidi.net/three/entry.php?id=107
p289
F1312145927.7718389
sS'http://www.youtube.com/watch?v=COkya7N3pB8&feature=youtube_gdata_player'
p290
F1312146379.160557
sS'http://www.legislation.gov.uk/ukpga/2000/36/schedule/1/data.htm'
p291
F1312145967.0468791
sS'http://www.youtube.com/watch?v=kdnwDbe16MQ&feature=share'
p292
F1312146388.9329021
sS'http://www.astilla.co.uk/blog/first-use-ipad'
p293
F1312286463.078079
sS'http://slashdotrobot.wordpress.com/2008/05/18/where-did-the-paint-go/'
p294
F1312286564.8926201
sS'http://bandofthebes.typepad.com/bandofthebes/2011/07/married-lesbian-couple-rescued-40-teens-from-norway-massacre.html'
p295
F1312287367.993376
sVhttp://blog.kasabi.com/2011/07/22/featured-dataset-mta-new-york-city-transit/
p296
F1312145992.063343
sVhttp://t.co/iJVAeZc
p297
F1312146437.47842
sS'http://timhodson.com/2011/08/iphone-cycle-mount-mark-one/'
p298
F1312288542.4954319
sS'http://www.virtualchaos.co.uk/blog/2010/06/27/education-is-a-global-religio/'
p299
F1312286484.7869191
sS'http://slashdotrobot.wordpress.com/2008/04/06/eaton-m45/'
p300
F1312286569.735831
sS'http://julianhigman.com/blog/2010/06/16/google-maps-on-android-downloads-60mb-in-10-minutes/'
p301
F1312286576.787282
sS'http://scholarlykitchen.sspnet.org/2011/08/01/will-open-data-solve-peer-review-concerns/?utm_source=feedburner&utm_medium=twitter&utm_campaign=Feed%3A+ScholarlyKitchen+%28The+Scholarly+Kitchen%29'
p302
F1312287232.7770779
sS'http://itoccurs.wordpress.com/2008/04/05/breezing-in-to-melbourne/'
p303
F1312286622.484663
sVhttp://timhowgego.com/introduction-to-uk-local-public-transport-data.html
p304
F1312146002.9536071
sVhttp://chem-bla-ics.blogspot.com/2011/07/chempedia-rdf-2-kasabi.html
p305
F1312145956.448307
sS'http://www.justinleavesley.com/journal/2006/11/26/ive-been-away-for-a-while.html'
p306
F1312286542.570744
sS'http://semanticweb.com/british-library-announces-major-release-of-linked-data_b21499'
p307
F1312146663.4113979
sS'http://beobal.com/blog/2006/11/ibm-adtech-group-release-rdf-repository'
p308
F1312286439.287431
sS'http://blog.kasabi.com/2011/06/22/open-government-hackday/'
p309
F1312287301.1612849
sS'http://www.virtualchaos.co.uk/blog/2009/06/14/webdriver/'
p310
F1312286510.1317639
sS'https://skitch.com/rosssinger/few4h/code4lib-2008-lightning-talk-citation-parsing-made-easy-erik-hetzner'
p311
F1312146355.454555
sS'http://dynamicorange.com/2011/04/11/in-summary-i-dont-like-writing-more-code-than-i-have-to/'
p312
F1312286403.285912
sS'http://www.jenitennison.com/blog/node/160'
p313
F1312146105.9986889
sS'http://www.zurb.com/article/749/what-we-can-learn-from-7-complete-product?utm_source=feedburner&utm_medium=feed&utm_campaign=Feed%3A+zurb%2Fblog+%28ZURB%29'
p314
F1312287314.538377
sVhttp://data.gov.uk/dataset/naptan
p315
F1312146001.6115711
sS'http://julianhigman.com/blog/2009/03/19/validate-your-inputs/'
p316
F1312286580.629545
sS'http://wonderfulworldofmrc.blogspot.com/2007/01/young-librarians-of-future-podcast.html'
p317
F1312286452.259172
sS'http://www.virtualchaos.co.uk/blog/2009/10/02/karen-armstrong-lets-revive-the-golden-rule/'
p318
F1312286498.091763
sVhttp://www.bbc.co.uk/news/education-14216167
p319
F1312146759.1828229
sVhttp://en.wikipedia.org/wiki/Field-programmable_gate_array
p320
F1312145931.308296
sS'http://open.spotify.com/track/3oQRHsXWFucMeE2I2DHT7F'
p321
F1312287337.3041289
sVhttp://t.co/8mzHnzO\u201d
p322
F1312146362.3575499
sVhttp://rascalmicro.com/blog/
p323
F1312145937.261466
sS'http://tbe.taleo.net/NA9/ats/careers/requisition.jsp?org=TALIS&cws=1&rid=37'
p324
F1312146452.2964039
sS'http://consulting.talis.com/blog/#.Tilg15kbobs.twitter'
p325
F1312287409.5184331
sVhttp://www.everaldo.com/crystal/?action=preview
p326
F1312146010.7367079
sVhttp://www.atoc.org/about-atoc/rail-settlement-plan/data-feeds/cost
p327
F1312146002.2088771
sS'http://consulting.talis.com/2011/07/uk-government-commits-to-more-open-data/'
p328
F1312146217.90938
sS'http://callumjones.blog.com/2011/07/27/the-truth-about-the-bbc/'
p329
F1312146210.876123
sS'http://www.virtualchaos.co.uk/blog/2009/07/19/philip-zimbardo-prescribes-a-healthy-take-on-time/'
p330
F1312286502.9628
sS'http://blog.iandavis.com/2011/07/07/big-ben/'
p331
F1312286393.015228
sS'http://dilettantes.code4lib.org/blog/2009/08/where-is-the-outrage/'
p332
F1312286558.383204
sS'http://www.astilla.co.uk/blog/having-clear-out'
p333
F1312286462.067543
sS'http://beobal.com/blog/2007/05/flickr-twitter-on-asynchronicity'
p334
F1312286438.0929971
sVhttp://www.slideshare.net/sonnly/culture9090801103430phpapp02-1914140
p335
F1312145962.633733
sVhttp://www.iana.org/assignments/link-relations/link-relations.xml
p336
F1312145961.9954219
sS'http://blog.palantirtech.com/2010/03/08/friction-in-human-computer-symbiosis-kasparov-on-chess/'
p337
F1312146296.4601009
sS'http://bldgblog.blogspot.com/2011/08/nazca-city.html'
p338
F1312287215.297852
sVhttp://freespace.virgin.net/hugo.elias/graphics/x_main.htm
p339
F1312145927.9834809
sS'http://dilettantes.code4lib.org/blog/2009/08/supercharged-ruby-marc/'
p340
F1312286557.0818889
sS'http://www.zachbeauvais.com/archives/hasbean/'
p341
F1312286658.593199
sVhttp://www.london-gazette.co.uk/issues/7379/pages/1
p342
F1312145989.802604
sS'http://adage.com/article/digital/google-readies-ambitious-plan-web-data-exchange/228637/'
p343
F1312146345.937253
sVhttp://www.youtube.com/watch?v=IJa235_AjnA&feature=related
p344
F1312145933.0674739
sS'http://malcolmlandon.wordpress.com/2008/01/30/svn-quick-reference-card/'
p345
F1312286424.5631411
sVhttp://www.gnupg.org/gph/en/manual.html
p346
F1312145909.4834001
sS'http://slashdotrobot.wordpress.com/2008/04/13/jero/'
p347
F1312286566.8860891
sS'http://wonderfulworldofmrc.blogspot.com/2007/02/considering-data-conversion-in-agile.html'
p348
F1312286446.1869271
sS'http://beobal.com/blog/2006/11/ning'
p349
F1312286440.2298231
sS'http://malcolmlandon.wordpress.com/2007/09/28/forget-chasing-ambulances-chase-your-bank-manager/'
p350
F1312286429.839999
sS'http://www.talisaspire.com/newsletter/july-2011/'
p351
F1312146766.5973051
sS'http://www.daveyp.com/cgi-bin/crystal/ball.pl?1299246655'
p352
F1312146370.029037
sS'http://dilettantes.code4lib.org/blog/2009/07/going-solr-without-solr/'
p353
F1312286560.895731
sS'http://www.youtube.com/watch?v=NI9EmaruT0s&feature=share'
p354
F1312146658.942991
sS'http://skitch.com/gridinoc/fca9e/amazon'
p355
F1312146735.697681
sS'http://itoccurs.wordpress.com/2008/04/11/hobart-mountain-river/'
p356
F1312286620.5351591
sS'http://dilettantes.code4lib.org/blog/2010/03/getting-the-whole-story/'
p357
F1312286555.7070301
sS'http://govinthelab.com/the-dangers-of-mandating-open-government-data/'
p358
F1312146158.323705
sS'http://itoccurs.wordpress.com/2008/04/06/a-circular-tram-ride-and-one-to-the-beach/'
p359
F1312286621.460578
sS'http://beta.kasabi.com/dataset/southampton-postcodes'
p360
F1312287220.4155631
sS'http://informationtakesover.co.uk/2010/04/library-funding/'
p361
F1312286637.449873
sS'http://www.justgiving.com/Alexa-Torlo/3'
p362
F1312146374.4390769
sS'http://www.ashleyb.org/archives/001454.html'
p363
F1312287339.0417559
sS'http://www.zachbeauvais.com/archives/royal-reflections/'
p364
F1312286649.9480109
sVhttp://aksw.org/Projects/limes
p365
F1312145971.1665919
sVhttp://uk.farnell.com/jsp/displayProduct.jsp?sku=1560812&CMP=e-2072-00001000
p366
F1312145931.085062
sS'http://www.twitlonger.com/show/767sk0'
p367
F1312287434.1609509
sS'http://assistantblog.co.uk/2011/01/10/bird-drawings-needed/'
p368
F1312287429.6204841
sS'http://www.astilla.co.uk/2009/09/more-ie7-cpu-spiking'
p369
F1312286471.735378
sS'http://blog.iandavis.com/2010/11/08/instructions-from-our-new-iron-check-item-4/'
p370
F1312286399.2630441
sS'http://papers.ssrn.com/sol3/papers.cfm?abstract_id=1450006'
p371
F1312146699.4648039
sVhttp://seatgeek.com/blog/dev/fuzzywuzzy-fuzzy-string-matching-in-python
p372
F1312146022.9449329
sVhttp://tools.ietf.org/html/rfc5988.html
p373
F1312145961.1099219
sS'http://www.virtualchaos.co.uk/blog/2011/04/07/a-thought-5/'
p374
F1312286478.1513851
sS'http://www.youtube.com/watch?v=sognAcZqFo4&feature=youtu.be'
p375
F1312146675.9954121
sS'http://www.mikekarnj.com/blog/2011/08/01/how-to-launch-your-startup-idea-for-less-than-5k/'
p376
F1312286680.412082
sS'http://www.instigatorblog.com/dont-code/2011/05/06/'
p377
F1312146692.812763
sS'http://uk.dahon.com/accessories/2010/biologic-bike-mount-iphone'
p378
F1312287321.0715189
sS'http://www.techmeme.com/110711/p2#a110711p2'
p379
F1312146348.1225951
sVhttp://www.neoclassicspace.com/
p380
F1312145969.380877
sS'http://informationtakesover.co.uk/2010/10/academic-open-data/'
p381
F1312286635.139725
sVhttp://www.allegro.cc/manual/4/
p382
F1312145928.511358
sS'http://itoccurs.wordpress.com/2008/04/14/canberra/'
p383
F1312286619.486726
sS'http://dilettantes.code4lib.org/blog/2010/09/for-your-consideration-yet-another-marc-in-json-proposal-pt-1/'
p384
F1312286551.3009779
sS'http://beta.kasabi.com/dataset/mot-testing-stations'
p385
F1312146752.485147
sVhttp://en.wikipedia.org/wiki/Curta_calculator
p386
F1312145950.6949699
sS'http://informationtakesover.co.uk/2010/03/outlook-to-skype-sms/'
p387
F1312286639.978442
sVhttp://bash.org/?926695
p388
F1312146071.9302399
sS'http://dynamicorange.com/2010/11/15/what-people-find-hard-about-linked-data/'
p389
F1312286405.278873
sVhttp://blog.bumblebeelabs.com/social-software-sundays-2-the-evaporative-cooling-effect/
p390
F1312146005.1235931
sS'http://dilettantes.code4lib.org/blog/2010/09/a-proposal-to-serialize-marc-in-json/'
p391
F1312286550.336998
sS'http://www.legislation.gov.uk/ukpga/2011/9/enacted/data.htm'
p392
F1312146102.6089079
sS'http://wonderfulworldofmrc.blogspot.com/2005/11/you-wont-find-heavy-metal-using-dobly.html'
p393
F1312286454.766295
sS'http://www.zachbeauvais.com/archives/fundamental_atheism/'
p394
F1312286667.118346
sS'http://www.videojug.com/film/how-to-perform-the-perfect-golf-swing'
p395
F1312287424.8629241
sVhttp://lazycrazy.deviantart.com/art/Lovely-website-icons-pack-1-132237340
p396
F1312146020.5405681
sS'http://lockerz.com/s/124664344'
p397
F1312146299.3026271
sS'http://www.lovelifeloverunning.co.uk/'
p398
F1312146148.5641379
sS'http://dynamicorange.com/2010/10/14/no-named-graphs-%e2%80%94-period/'
p399
F1312286409.073745
sVhttp://web.archive.org/web/20070701074943/http://blog.pmarca.com/2007/06/the-pmarca-gu-2.html
p400
F1312146007.2373209
sVhttp://www.slideshare.net/ldodds/challenges-opportunities-for-linked-data
p401
F1312146026.5459211
sS'http://www.guardian.co.uk/higher-education-network/blog/2011/jun/30/private-higher-education-providers-and-reform'
p402
F1312146768.520551
sS'http://julianhigman.com/blog/2009/03/12/resetting-the-oil-service-light-on-a-2006-bmw-320i/'
p403
F1312286581.0129869
sS'http://informationtakesover.co.uk/2010/02/library-offers-fee-tea-bag/'
p404
F1312286641.1222351
sVhttp://www.slideshare.net/ldodds/getting-started-with-the-talis-platform-presentation
p405
F1312146025.9234741
sS'http://blog.kasabi.com/2011/07/29/featured-dataset-iati/'
p406
F1312146563.6076009
sS'http://dynamicorange.com/2010/07/12/flatten-it-without-collisions/'
p407
F1312286410.778703
sS'http://wonderfulworldofmrc.blogspot.com/2007/03/books-to-your-door-welcome-to.html'
p408
F1312286444.3919029
sS'http://www.justinleavesley.com/journal/2005/8/7/schrdingers-web.html'
p409
F1312286544.636761
sS'http://finance.yahoo.com/banking-budgeting/article/113086/bubble-destroyed-middle-class-marketwatch?mod=bb-budgeting&sec=topStories&pos=5&asset=&ccode='
p410
F1312146343.8764319
sS'http://cwkb.org/matrix/20100922'
p411
F1312287278.864224
sVhttp://www.transmissionzero.co.uk/radio/london-pirate-radio/
p412
F1312145968.3807559
sS'http://www.justinleavesley.com/journal/2006/12/8/the-puzzle-of-semantic-web-adoption.html'
p413
F1312286541.755861
sVhttp://t.co/vAdDTmS...
p414
F1312146674.9925821
sS'https://forums.aws.amazon.com/message.jspa?messageID=132032'
p415
F1312146447.1636169
sS'http://twitpic.com/5umta5'
p416
F1312146147.101151
sVhttp://www.roughtrade.com/site/content.lasso?page=AOY_2010_11-100_v2.html
p417
F1312145971.5252421
sS'http://wonderfulworldofmrc.blogspot.com/2007/01/clusty.html'
p418
F1312286452.654443
sS'http://semanticweb.com/how-google-is-using-musicbrainz_b21832'
p419
F1312287387.2059219
sVhttp://blog.programmableweb.com/2011/06/08/kasabi-helps-take-data-as-a-service-to-a-new-level/
p420
F1312145958.0423751
sS'http://www.justinleavesley.com/journal/2008/8/7/essay-is-big-business-heading-for-mass-extinction.html'
p421
F1312286536.150512
sS'http://www.virtualchaos.co.uk/blog/2009/01/30/designing-innovation-networks-on-lifes-origins-and-evolution/'
p422
F1312286532.819603
sS'http://wonderfulworldofmrc.blogspot.com/2005/09/web-20-and-globalisation.html'
p423
F1312286457.1539421
sVhttp://openplans.org/
p424
F1312146017.802217
sS'http://data.ordnancesurvey.co.uk/doc/50kGazetteer/209157.html'
p425
F1312146281.3287439
sVhttp://semanticweb.com/kasabi-sees-a-business-model-in-rdf-data_b21385
p426
F1312145959.7001331
sS'http://slashdotrobot.wordpress.com/2007/12/17/run-out-of-rust-luck/'
p427
F1312286571.618546
sS'http://www.openforum.com/articles/how-ahalife-grew-600-percent-by-telling-the-story-behind-products?extlink=em-openf-SBdaily'
p428
F1312146200.4359021
sS'http://blog.iandavis.com/2010/12/15/my-feedback-on-sparql-1-1-uniform-http-protocol-for-managing-rdf-graphs/'
p429
F1312286396.0743561
sS'http://onlinehelp.microsoft.com/en-us/bing/hh207238.aspx'
p430
F1312287416.2426779
sS'http://informationtakesover.co.uk/2010/10/remove-the-dust-sheets/'
p431
F1312286636.260644
sVhttp://data.gov.uk/dataset/ukcp09-gridded-annual-datasets-of-rainfall-intensity-on-days-of-rain
p432
F1312146017.994874
sS'http://www.wired.com/wiredscience/2010/03/heidegger-tools/'
p433
F1312287336.6878569
sVhttp://wurfl.sourceforge.net/
p434
F1312145980.3029449
sS'http://www.virtualchaos.co.uk/blog/2009/03/19/lifes-too-short-write-fast-code/'
p435
F1312286519.859843
sS'http://www.twitlonger.com/show/767sgf'
p436
F1312287434.838939
sS'http://www.virtualchaos.co.uk/blog/2009/03/12/the-sixth-sense-wearable-tech/'
p437
F1312286523.0861671
sS'http://opendatachallenge.org'
p438
F1312146263.8800049
sS'http://www.openarts.org/matt/downloads/WoodenLogic.pdf'
p439
F1312146727.120645
sS'http://www.virtualchaos.co.uk/blog/2009/07/19/rdfquery-10-released/'
p440
F1312286506.859576
sS'http://kasabi-culture-estwhdr.eventbrite.com'
p441
F1312146662.326268
sS'http://digital.humanities.ox.ac.uk/DHSS2011/index.html'
p442
F1312146106.654676
sS'http://www.cyclelicio.us/2011/illegal-parking-crushed-btr/'
p443
F1312287217.2552581
sS'http://gargoyle.wpm.iawhq.co.uk/2011/06/16/mac-os-x-lion-etchosts-file/#comment-35'
p444
F1312287260.5646231
sS'http://beta.kasabi.com/dataset/iati'
p445
F1312146565.346729
sS'http://beobal.com/blog/2006/11/enterprise-20-mashups'
p446
F1312286440.606734
sS'http://wonderfulworldofmrc.blogspot.com/2007/01/reader-development-is-so-important.html'
p447
F1312286451.889179
sS'http://malcolmlandon.wordpress.com/2008/08/07/ben-vs-the-ninja-dude/'
p448
F1312286423.593647
sS'http://www.virtualchaos.co.uk/blog/2009/03/16/tim-berners-lee-the-next-web-of-open-linked-data/'
p449
F1312286521.4620819
sS'http://www.astilla.co.uk/blog/i-think-i-have-enough-drupal-installs-now'
p450
F1312286464.7281561
sS'http://informationtakesover.co.uk/2010/10/watching-the-semantic-web-come-alive/'
p451
F1312286632.7112889
sS'http://julianhigman.com/blog/2010/09/17/ubuntu-and-cloudinit-on-amazon-ec2/'
p452
F1312286576.3374929
sS'http://instagr.am/p/JDhsE/'
p453
F1312288542.79883
sS'http://wonderfulworldofmrc.blogspot.com/2007/02/changing-relationship-between.html'
p454
F1312286445.261528
sVhttp://regionalanalysislab.org/?n=PySAL
p455
F1312146068.7329199
sS'https://plus.google.com/116964689984896197121/posts/H5fc19KL691'
p456
F1312287456.9036369
sVhttp://www.vimeo.com/1132937
p457
F1312145907.122823
sVhttp://www.bbc.co.uk/food/recipes/peppermint_creams_00124
p458
F1312145965.206759
sS'http://www.timeshighereducation.co.uk/story.asp?storycode=414089#.TjLY1QVkZ8A.twitter'
p459
F1312146740.3272469
sS'http://malcolmlandon.wordpress.com/2008/09/05/protobuf-linking-error/'
p460
F1312286422.7329521
sVhttp://www.slideshare.net/ldodds/web-integrated-data
p461
F1312146024.371989
sS'http://wonderfulworldofmrc.blogspot.com/2006/02/resource-discovery-posts.html'
p462
F1312286453.363107
sS'http://informationtakesover.co.uk/2011/07/winning-video-from-sssw11/'
p463
F1312286631.5185061
sS'http://www.virtualchaos.co.uk/blog/2009/05/25/jin-roh-the-wolf-brigade/'
p464
F1312286513.4427831
s.