(dp0
Vhttp://t.co/Overview.html.utf-8
p1
F1312146733.1044979
sVhttp://www.solving-math-problems.com/calculate-square-root.html#Detail
p2
F1312145951.9237211
sS'http://soundcloud.com/muterecords/apparat-black-water'
p3
F1312146686.766149
sS'http://skitch.com/gridinoc/fca9e/amazon'
p4
F1312146735.697681
sVhttp://www.thedesignwork.com/45-free-small-symbols-vector-icon-sets/
p5
F1312146018.9041491
sS'http://www.talisaspire.com/'
p6
F1312146758.8260951
sS'http://govinthelab.com/the-dangers-of-mandating-open-government-data/'
p7
F1312146158.323705
sS'http://blogs.ecs.soton.ac.uk/data/2011/04/01/pdf-selected-as-interchange-format/'
p8
F1312146292.047708
sS'http://www.birminghampost.net/birmingham-business/birmingham-business-news/legal-business/2011/03/11/wragge-co-advises-on-18m-talis-deal-65233-28321104/'
p9
F1312146368.92992
sVhttp://www.youtube.com/watch?v=52TxGLYmHmg
p10
F1312145993.3939309
sVhttp://deck.ly/~jgLSL
p11
F1312146390.207164
sS'http://www.justgiving.com/Alexa-Torlo/3'
p12
F1312146374.4390769
sS'http://www.thebitsource.com/featured-posts/rackspace-cloud-servers-versus-amazon-ec2-performance-analysis/'
p13
F1312146450.6974461
sS'http://www.volkszone.co.uk/brian/PIKEYS.jpg'
p14
F1312146693.7868941
sS'http://www.buzzfeed.com/awesomer/50-company-names-you-probably-didnt-know-the-orig'
p15
F1312146734.6327519
sVhttp://aksw.org/Projects/limes
p16
F1312145971.1665919
sVhttp://uk.farnell.com/jsp/displayProduct.jsp?sku=1560812&CMP=e-2072-00001000
p17
F1312145931.085062
sS'http://www.daveyp.com/cgi-bin/crystal/ball.pl?1299246700'
p18
F1312146371.364789
sVhttp://code.google.com/p/microblog-purple/
p19
F1312146381.76583
sVhttp://dlanham.com/ui/sticker/
p20
F1312146019.466435
sS'http://www.bbc.co.uk/news/technology-14322957?utm_source=twitterfeed&utm_medium=twitter'
p21
F1312146133.674798
sVhttp://graphite.ecs.soton.ac.uk/stuff2rdf/
p22
F1312145989.6305311
sVhttp://worrydream.com/Tangle/
p23
F1312145994.5784791
sS'http://www.worldtimebuddy.com/'
p24
F1312145963.614367
sVhttp://www.iconeden.com/icon/bright-free-stock-iconset.html
p25
F1312146011.474623
sS'http://www.wired.co.uk/news/archive/2011-07/27/children-as-scientists'
p26
F1312146303.2488329
sS'http://soundcloud.com/radiohead/03-separator-four-tet-rmx'
p27
F1312146690.636544
sVhttp://blog.okfn.org/2011/06/25/open-data-and-kasabi/
p28
F1312145958.5676329
sVhttp://en.wikipedia.org/wiki/Field-programmable_gate_array
p29
F1312145931.308296
sS'http://papers.ssrn.com/sol3/papers.cfm?abstract_id=1450006'
p30
F1312146699.4648039
sS'http://blog.pachube.com/2011/05/crowdsourcing-open-data-evolving-into.html'
p31
F1312146550.70753
sS'http://gowalla.com/checkins/40632175'
p32
F1312146141.292506
sVhttp://memeburn.com/2010/11/humans-vs-machines-aggregation-vs-curation/
p33
F1312145972.7197289
sVhttp://www.slideshare.net/ldodds/kasabi-linked-data-marketplace
p34
F1312146027.8056221
sVhttp://seatgeek.com/blog/dev/fuzzywuzzy-fuzzy-string-matching-in-python
p35
F1312146022.9449329
sVhttp://tools.ietf.org/html/rfc5988.html
p36
F1312145961.1099219
sS'http://www.daveyp.com/cgi-bin/crystal/ball.pl?1299246763'
p37
F1312146372.899226
sVhttp://deck.ly/~0Y3Tm
p38
F1312146387.86654
sVhttp://www.allegro.cc/manual/4/
p39
F1312145928.511358
sS'http://www.youtube.com/watch?v=sognAcZqFo4&feature=youtu.be'
p40
F1312146675.9954121
sS'http://www.mediamolecule.com/lab/article/doing_exactly_the_right_amount_of_work/?utm_source=feedburner&utm_medium=twitter&utm_campaign=Feed%3A+MmLab+The+Lab'
p41
F1312146219.048703
sVhttp://data.gov.uk/dataset/nptdr
p42
F1312146001.9667959
sVhttp://www.slideshare.net/ldodds/creating-apis-over-rdf
p43
F1312146027.171473
sS'http://www.wired.com/wiredscience/2011/07/genome-structure/'
p44
F1312146075.7390571
sS'http://blog.brooksengland.com/wps/brooks-is-closed/'
p45
F1312146128.5677371
sVhttp://free.pages.at/easyfilter/bresenham.html
p46
F1312145907.59638
sS'http://paulrobertlloyd.com/2011/07/the_skys_the_limit/'
p47
F1312146301.9447629
sS'http://www.talisaspire.com/2011/07/12/campus-edition-new-features-april-june-2011/'
p48
F1312146770.3567581
sVhttp://www.diycalculator.com/popup-m-hrrgcomp.shtml
p49
F1312145945.2823279
sS'http://data.gov.uk/organogram'
p50
F1312146265.590539
sVhttp://www.neoclassicspace.com/
p51
F1312145969.380877
sS'http://www.youtube.com/watch?v=C_Pk5EE5QV8'
p52
F1312146129.4247551
sS'http://blog.kasabi.com/2011/07/28/open-gov-hackday/'
p53
F1312146657.7553301
sVhttp://www.youtube.com/watch?v=xwBK31tC5QM
p54
F1312145935.189477
sS'http://opencompute.org'
p55
F1312146378.1801169
sVhttp://www.flickr.com/photos/-2x4-/sets/72157622387899624/with/3971739850/
p56
F1312145970.3295131
sVhttp://fantasticlife.posterous.com/a-comment-for-node114
p57
F1312146266.6688221
sS'http://blog.iandavis.com/2011/07/18/kasabi-transit-data-for-new-york-city/'
p58
F1312146674.574492
sVhttp://www.oercommons.org/courses/farallon-plate-remnants
p59
F1312145994.0114181
sS'http://www.youtube.com/verify_age?next_url=http%3A//www.youtube.com/watch%3Fv%3DmGOY0-LaV7Y%26list%3DSL'
p60
F1312145936.6970911
sS'http://tabs.ultimate-guitar.com/m/misc_unsigned_bands/ross_singer_-_riff1_btab.htm'
p61
F1312146363.3366899
sS'http://musicmachinery.com/2011/05/14/how-good-is-googles-instant-mix/'
p62
F1312146549.867296
sS'http://goods.us.marketgid.com/goods/1405/477092/'
p63
F1312146681.042438
sVhttp://en.wikipedia.org/wiki/Curta_calculator
p64
F1312145950.6949699
sS'http://blog.lboro.ac.uk/mtrlc/'
p65
F1312146769.390806
sS'https://skitch.com/rosssinger/few4h/code4lib-2008-lightning-talk-citation-parsing-made-easy-erik-hetzner'
p66
F1312146355.454555
sS'http://googlecode.blogspot.com/2011/07/page-speed-service-web-performance.html'
p67
F1312146229.5432119
sS'http://www.independent.co.uk/sport/football/news-and-comment/click-and-buy-how-scouting-embraced-the-21st-century-2326368.html'
p68
F1312146387.1401491
sS'http://open.spotify.com/user/kierdavis/playlist/5gOp7x69F9StEymPVOgqeE'
p69
F1312146067.3211751
sS'http://m.theatlantic.com/politics/archive/2011/07/the-chart-that-should-accompany-all-discussions-of-the-debt-ceiling/242484/'
p70
F1312146332.0764561
sVhttp://bash.org/?926695
p71
F1312146071.9302399
sS'http://open.vocab.org/docs/phoneNumber.html'
p72
F1312146274.9602809
sVhttp://blog.bumblebeelabs.com/social-software-sundays-2-the-evaporative-cooling-effect/
p73
F1312146005.1235931
sVhttp://www.youtube.com/watch?v=l0Lm9moEoH0
p74
F1312145933.6237321
sVhttp://twitpic.com/595j2k
p75
F1312146070.914346
sVhttp://www.arduino.cc/cgi-bin/yabb2/YaBB.pl?num=1250658196
p76
F1312145915.742892
sS'http://www.instigatorblog.com/dont-code/2011/05/06/'
p77
F1312146692.812763
sS'http://www.itworld.com/it-managementstrategy/187543/when-google-kills-your-account-what-happens-your-android-phone'
p78
F1312146300.738754
sS'http://www.legislation.gov.uk/ukpga/2011/9/enacted/data.htm'
p79
F1312146102.6089079
sS'http://data.gov.uk/organogram/cabinet-office'
p80
F1312146262.6987469
sVhttp://wiki.dbpedia.org/Downloads36
p81
F1312146679.3038449
sS'http://www.bbc.co.uk/news/uk-14070733'
p82
F1312146367.592536
sVhttp://t.co/iJVAeZc
p83
F1312146437.47842
sS'http://www.talisaspire.com/2011/07/21/related-content-widget/'
p84
F1312146760.428885
sVhttp://www.visualdataweb.org/tfacet.php
p85
F1312146266.9236741
sVhttp://inspector.sindice.com/
p86
F1312145962.8230469
sS'http://www.gameinformer.com/b/news/archive/2011/07/30/littlebigplanet-2-getting-toy-story-levels-and-costumes.aspx'
p87
F1312146166.0845699
sS'http://www.justinrummel.com/'
p88
F1312146445.381222
sVhttp://www.freesound.org/index.php
p89
F1312145990.181982
sVhttp://notes.3kbo.com/kasabi
p90
F1312145954.7934339
sVhttp://lazycrazy.deviantart.com/art/Lovely-website-icons-pack-1-132237340
p91
F1312146020.5405681
sVhttp://en.wikipedia.org/wiki/Help:Wiki_markup
p92
F1312145936.170429
sS'http://lockerz.com/s/124664344'
p93
F1312146299.3026271
sVhttp://charliepark.org/slopegraphs/
p94
F1312146008.6683681
sVhttp://www.youtube.com/watch?v=jO0VLouJFNQ
p95
F1312145906.1007221
sS'http://www.lovelifeloverunning.co.uk/'
p96
F1312146148.5641379
sS'http://google-latlong.blogspot.com/2011/07/catch-london-underground-with-google.html'
p97
F1312146695.073386
sS'http://techcrunch.com/2011/07/10/building-an-enterprise-software-company-that-doesnt-suck/'
p98
F1312146342.2578881
sVhttp://lin-clark.com/blog/two-meanings-semantics-html5
p99
F1312145992.699301
sS'http://yfrog.com/kixxzacj'
p100
F1312146682.3059621
sVhttp://web.archive.org/web/20070701074943/http://blog.pmarca.com/2007/06/the-pmarca-gu-2.html
p101
F1312146007.2373209
sS'http://www.techmeme.com/110711/p2#a110711p2'
p102
F1312146348.1225951
sVhttp://www.slideshare.net/ldodds/challenges-opportunities-for-linked-data
p103
F1312146026.5459211
sVhttp://mbostock.github.com/d3/
p104
F1312146009.8218369
sS'http://www.guardian.co.uk/higher-education-network/blog/2011/jun/30/private-higher-education-providers-and-reform'
p105
F1312146768.520551
sVhttp://www.slideshare.net/ldodds/getting-started-with-the-talis-platform-presentation
p106
F1312146025.9234741
sS'http://lrt.mmu.ac.uk/w2c/2011/07/27/our-new-moodle-theme/'
p107
F1312146214.5545731
sVhttp://www.youtube.com/watch?v=-jLxE_TP4SQ&feature
p108
F1312146120.2646101
sVhttps://www.develer.com/trac/dspython/browser/trunk/libnds-src-20070503/include/nds/arm9?rev=10
p109
F1312145935.936049
sS'http://linkedmanchester.org'
p110
F1312146265.002435
sVhttp://www.allaboutcircuits.com/vol_4/chpt_11/3.html
p111
F1312145908.955467
sVhttp://www.squidi.net/three/entry.php?id=107
p112
F1312145927.7718389
sS'http://www.youtube.com/watch?v=COkya7N3pB8&feature=youtube_gdata_player'
p113
F1312146379.160557
sS'http://www.legislation.gov.uk/ukpga/2000/36/schedule/1/data.htm'
p114
F1312145967.0468791
sS'http://www.youtube.com/watch?v=kdnwDbe16MQ&feature=share'
p115
F1312146388.9329021
sS'http://en.wikipedia.org/wiki/John_Craven'
p116
F1312146130.5516469
sVhttp://excamera.com/sphinx/gameduino/
p117
F1312145934.517066
sS'http://finance.yahoo.com/banking-budgeting/article/113086/bubble-destroyed-middle-class-marketwatch?mod=bb-budgeting&sec=topStories&pos=5&asset=&ccode='
p118
F1312146343.8764319
sVhttp://www.youtube.com/watch?v=ZD8RXjhTKZg&feature=related
p119
F1312145932.4256999
sVhttp://www.youtube.com/watch?v=zzfQwXEqYaI&feature=related
p120
F1312145929.2685039
sVhttp://www.transmissionzero.co.uk/radio/london-pirate-radio/
p121
F1312145968.3807559
sVhttp://youtu.be/qt
p122
F1312146139.64837
sVhttp://blog.kasabi.com/2011/07/22/featured-dataset-mta-new-york-city-transit/
p123
F1312145992.063343
sS'http://www.lucidimagination.com/blog/2011/07/28/dont-use-java-7-for-anything/'
p124
F1312146099.008857
sS'http://open.spotify.com/track/1I0hFGsgA5pJqutFzwTNQf'
p125
F1312146069.7730711
sVhttp://t.co/vAdDTmS...
p126
F1312146674.9925821
sS'https://forums.aws.amazon.com/message.jspa?messageID=132032'
p127
F1312146447.1636169
sS'http://twitpic.com/5umta5'
p128
F1312146147.101151
sVhttp://www.roughtrade.com/site/content.lasso?page=AOY_2010_11-100_v2.html
p129
F1312145971.5252421
sVhttp://t.co/0YTocAz
p130
F1312146743.934092
sS'http://www.talisaspire.com/2011/07/11/lancaster-university-selects-talis-aspire-campus-edition/'
p131
F1312146771.175833
sVhttp://www.getskeleton.com/
p132
F1312146003.8005531
sVhttp://blog.programmableweb.com/2011/06/08/kasabi-helps-take-data-as-a-service-to-a-new-level/
p133
F1312145958.0423751
sS'http://www.youtube.com/watch?v=ZucJAkzCNq8&feature=share'
p134
F1312146655.6369121
sVhttp://blogs.discovermagazine.com/cosmicvariance/2011/07/13/free-will-is-as-real-as-baseball/
p135
F1312146008.0299489
sS'http://www.zdnet.com/blog/hardware/amazons-kindle-tablet-doesnt-need-to-be-an-ipad-killer-to-be-a-winner/13939'
p136
F1312146209.3832979
sVhttp://timhowgego.com/introduction-to-uk-local-public-transport-data.html
p137
F1312146002.9536071
sVhttp://code.google.com/p/porpoise/
p138
F1312145980.640825
sVhttp://openplans.org/
p139
F1312146017.802217
sS'http://data.ordnancesurvey.co.uk/doc/50kGazetteer/209157.html'
p140
F1312146281.3287439
sVhttp://chem-bla-ics.blogspot.com/2011/07/chempedia-rdf-2-kasabi.html
p141
F1312145956.448307
sVhttp://www.ftrain.com/wwic.html
p142
F1312145969.0534251
sVhttp://semanticweb.com/kasabi-sees-a-business-model-in-rdf-data_b21385
p143
F1312145959.7001331
sS'http://twitpic.com/5xs1vy'
p144
F1312146353.7121201
sS'http://www.openforum.com/articles/how-ahalife-grew-600-percent-by-telling-the-story-behind-products?extlink=em-openf-SBdaily'
p145
F1312146200.4359021
sVhttp://www.fpga4fun.com/FPGAsoftware2.html
p146
F1312145916.488323
sS'http://mac.github.com/'
p147
F1312146361.4635711
sS'http://thenextweb.com/media/2011/07/30/how-musicians-are-making-money-by-returning-to-their-roots/?utm_source=feedburner&utm_medium=feed&utm_campaign=Feed:+TheNextWeb+(The+Next+Web+All+Stories)&utm_content=Google+Reader'
p148
F1312146127.419446
sVhttp://data.gov.uk/dataset/ukcp09-gridded-annual-datasets-of-rainfall-intensity-on-days-of-rain
p149
F1312146017.994874
sS'http://soundcloud.com/nosajthing'
p150
F1312146688.7815969
sS'http://www.jenitennison.com/blog/node/160'
p151
F1312146105.9986889
sS'http://poss.gliderlab.com/w/page/2018537/FrontPage'
p152
F1312145981.861541
sVhttp://wurfl.sourceforge.net/
p153
F1312145980.3029449
sVhttp://go-lang.cat-v.org/
p154
F1312146005.7789741
sVhttp://data.gov.uk/dataset/naptan
p155
F1312146001.6115711
sS'http://beta.kasabi.com/dataset/mot-testing-stations'
p156
F1312146752.485147
sS'http://blogs.worldbank.org/developmenttalk/open-data-is-not-enough-0'
p157
F1312146216.123095
sS'http://opendatachallenge.org'
p158
F1312146263.8800049
sVhttp://chem-bla-ics.blogspot.com/2011/07/chempedia-rdf-3-uploading-data-to.html
p159
F1312145955.6204679
sS'http://www.openarts.org/matt/downloads/WoodenLogic.pdf'
p160
F1312146727.120645
sVhttp://semanticweb.com/talis%E2%80%99s-kasabi-enters-public-beta_b20332
p161
F1312145957.1538179
sVhttp://www.bbc.co.uk/news/education-14216167
p162
F1312146759.1828229
sS'http://business.financialpost.com/2011/07/28/u-s-balance-now-less-than-apple-cash/'
p163
F1312146197.7180059
sVhttp://www.youtube.com/watch?v=486QvybwTe0&feature=related
p164
F1312145931.8509459
sVhttp://www.slideshare.net/zbeauvais/openday-kasabi
p165
F1312146029.064368
sS'http://kasabi-culture-estwhdr.eventbrite.com'
p166
F1312146662.326268
sVhttp://t.co/8mzHnzO\u201d
p167
F1312146362.3575499
sVhttp://rascalmicro.com/blog/
p168
F1312145937.261466
sS'http://tbe.taleo.net/NA9/ats/careers/requisition.jsp?org=TALIS&cws=1&rid=37'
p169
F1312146452.2964039
sS'http://consulting.talis.com/2011/07/should-seo-focus-in-on-linked-data/'
p170
F1312146136.775197
sS'http://www.guardian.co.uk/society/2011/jul/19/nhs-services-open-to-competition?CMP=twt_gu'
p171
F1312146152.1523509
sS'http://blog.kasabi.com/2011/07/26/featured-datasets-nhs-organizations-and-performance-data/'
p172
F1312146661.2402871
sS'http://digital.humanities.ox.ac.uk/DHSS2011/index.html'
p173
F1312146106.654676
sS'http://beta.kasabi.com/dataset/iati'
p174
F1312146565.346729
sVhttp://www.slideshare.net/zbeauvais/commercial-break-linked-data-for-business
p175
F1312146028.4310751
sS'http://www.youtube.com/watch?v=NI9EmaruT0s&feature=share'
p176
F1312146658.942991
sS'http://semanticweb.com/thoughts-on-google-plus-the-magic-isnt-social-its-semantic_b21852'
p177
F1312146146.1620879
sVhttp://www.sjjb.co.uk/mapicons/contactsheet.php
p178
F1312146010.1342261
sVhttp://www.atoc.org/about-atoc/rail-settlement-plan/data-feeds/cost
p179
F1312146002.2088771
sS'http://semanticweb.com/british-library-announces-major-release-of-linked-data_b21499'
p180
F1312146663.4113979
sVhttp://www.slideshare.net/ldodds/web-integrated-data
p181
F1312146024.371989
sS'http://consulting.talis.com/2011/07/uk-government-commits-to-more-open-data/'
p182
F1312146217.90938
sS'http://www.legislation.gov.uk/data.htm'
p183
F1312146103.6579001
sS'http://callumjones.blog.com/2011/07/27/the-truth-about-the-bbc/'
p184
F1312146210.876123
sVhttp://code.google.com/p/pyqrnative/
p185
F1312146009.0609651
sVhttp://www.youtube.com/watch?v=dJsDFij0JRY
p186
F1312146149.1766059
sVhttp://www.everaldo.com/crystal/?action=preview
p187
F1312146010.7367079
sS'http://blog.josema.net/2011/07/24/transition-wf/'
p188
F1312146116.5388319
sS'http://blog.kasabi.com/2011/07/29/featured-dataset-iati/'
p189
F1312146563.6076009
sVhttp://www.slideshare.net/sonnly/culture9090801103430phpapp02-1914140
p190
F1312145962.633733
sVhttp://www.wildbunny.co.uk/blog/2011/04/06/physics-engines-for-dummies/
p191
F1312145939.352947
sVhttp://www.iana.org/assignments/link-relations/link-relations.xml
p192
F1312145961.9954219
sS'http://c561635.r35.cf2.rackcdn.com/11-944-WP-students-at-heart.pdf'
p193
F1312146773.5616069
sS'http://blog.kasabi.com/2011/07/14/featured-dataset-foodista/'
p194
F1312146435.6052859
sVhttp://www.slideshare.net/bengee/rdf-and-sparql-for-php-developers-at-new-york-semantic-web-meetup
p195
F1312146025.274966
sVhttp://www.oucs.ox.ac.uk/oxpoints/
p196
F1312145979.6643541
sS'http://blog.palantirtech.com/2010/03/08/friction-in-human-computer-symbiosis-kasparov-on-chess/'
p197
F1312146296.4601009
sVhttp://freespace.virgin.net/hugo.elias/graphics/x_main.htm
p198
F1312145927.9834809
sVhttp://www.wearmouth.demon.co.uk/
p199
F1312145907.320966
sVhttp://uservoice.com/
p200
F1312145973.4989851
sVhttp://www.london-gazette.co.uk/issues/7379/pages/1
p201
F1312145989.802604
sS'http://adage.com/article/digital/google-readies-ambitious-plan-web-data-exchange/228637/'
p202
F1312146345.937253
sS'http://www.tweekly.fm/twitter/kierdavis'
p203
F1312146066.178407
sVhttp://www.youtube.com/watch?v=IJa235_AjnA&feature=related
p204
F1312145933.0674739
sVhttp://regionalanalysislab.org/?n=PySAL
p205
F1312146068.7329199
sVhttp://www.vimeo.com/1132937
p206
F1312145907.122823
sVhttp://www.gnupg.org/gph/en/manual.html
p207
F1312145909.4834001
sS'http://reviews.cnet.co.uk/software-and-web-apps/how-to-create-ebooks-using-os-x-lion-50004548/prices/'
p208
F1312146212.521271
sS'http://www.bbc.co.uk/blogs/markkermode/2011/07/smells_like_smurf_spirit.html'
p209
F1312146199.2614281
sVhttp://www.slideshare.net/sjbrinker/data-web-marketing
p210
F1312146023.7365971
sS'http://brightlemon.com/blog/open-government-visualisation-tools-open-data-resources-and-application-examples'
p211
F1312146664.0854681
sS'http://www.guardian.co.uk/commentisfree/2011/jul/24/charlie-brooker-norway-mass-killings?CMP=twt_iph'
p212
F1312146226.0194249
sVhttp://www.bbc.co.uk/food/recipes/peppermint_creams_00124
p213
F1312145965.206759
sS'http://www.timeshighereducation.co.uk/story.asp?storycode=414089#.TjLY1QVkZ8A.twitter'
p214
F1312146740.3272469
sVhttp://speckyboy.com/2010/01/21/free-icon-set-for-designers-the-go-green-icon-set-108-icons/
p215
F1312146040.295671
sS'http://www.regonline.com/Register/Checkin.aspx?EventID=962797'
p216
F1312146395.534126
sS'http://www.talisaspire.com/newsletter/july-2011/'
p217
F1312146766.5973051
sVhttp://labs.nationalarchives.gov.uk/wordpress/index.php/2011/07/datasets/
p218
F1312145991.04774
sVhttp://www.essortment.com/5-recipes-homemade-chocolate-filling-13976.html
p219
F1312145963.7898469
sS'http://www.daveyp.com/cgi-bin/crystal/ball.pl?1299246655'
p220
F1312146370.029037
sVhttp://data.gov.uk/dataset/nptg
p221
F1312146001.7874229
sVhttp://vintagefuture.tumblr.com/
p222
F1312145966.7027049
s.