(dp0
Vhttp://bit.ly/qFBnpG.
p1
S'http://blog.lboro.ac.uk/mtrlc/'
p2
sVhttp://t.co/PMdh8zH
p3
S'http://consulting.talis.com/2011/07/uk-government-commits-to-more-open-data/'
p4
sVhttp://t.co/qG3QxEL
p5
S'http://lockerz.com/s/124664344'
p6
sVhttp://t.co/KaOHO0B
p7
S'http://musicmachinery.com/2011/05/14/how-good-is-googles-instant-mix/'
p8
sVhttp://bit.ly/dXpIWY.
p9
S'http://www.talisaspire.com/'
p10
sVhttp://t.co/Yg26n8F
p11
S'http://google-latlong.blogspot.com/2011/07/catch-london-underground-with-google.html'
p12
sVhttp://t.co/talCDni
p13
S'http://twitpic.com/5umta5'
p14
sVhttp://bit.ly/qSwBXP
p15
S'http://govinthelab.com/the-dangers-of-mandating-open-government-data/'
p16
sVhttp://t.co/9ESjlZE
p17
S'http://googlecode.blogspot.com/2011/07/page-speed-service-web-performance.html'
p18
sVhttp://t.co/fDJZpFW
p19
S'http://www.getskeleton.com/'
p20
sVhttp://t.co/z404mVE
p21
S'http://www.wired.co.uk/news/archive/2011-07/27/children-as-scientists'
p22
sVhttp://t.co/VFgMHnF
p23
Vhttp://t.co/Overview.html.utf-8
p24
sVhttp://t.co/y8IR9YN
p25
S'http://www.youtube.com/watch?v=ZucJAkzCNq8&feature=share'
p26
sVhttp://ow.ly/5RbUi
p27
S'http://semanticweb.com/thoughts-on-google-plus-the-magic-isnt-social-its-semantic_b21852'
p28
sVhttp://t.co/hvH55Wa
p29
S'http://www.justgiving.com/Alexa-Torlo/3'
p30
sVhttp://www.sjjb.co.uk/mapicons/contactsheet
p31
Vhttp://www.sjjb.co.uk/mapicons/contactsheet.php
p32
sVhttp://t.co/oLW8xvG
p33
S'http://soundcloud.com/muterecords/apparat-black-water'
p34
sVhttp://tools.ietf.org/html/rfc5988
p35
Vhttp://tools.ietf.org/html/rfc5988.html
p36
sVhttp://bit.ly/mSSzKw
p37
S'http://www.talisaspire.com/2011/07/11/lancaster-university-selects-talis-aspire-campus-edition/'
p38
sVhttp://t.co/lCoc8qT
p39
S'http://semanticweb.com/british-library-announces-major-release-of-linked-data_b21499'
p40
sVhttp://t.co/4J0PxBi
p41
S'http://skitch.com/gridinoc/fca9e/amazon'
p42
sVhttp://t.co/SOTI5Qg
p43
S'http://linkedmanchester.org'
p44
sVhttp://skit.ch/b1ib
p45
S'https://skitch.com/rosssinger/few4h/code4lib-2008-lightning-talk-citation-parsing-made-easy-erik-hetzner'
p46
sVhttp://is.gd/c2GxAm
p47
S'http://blogs.ecs.soton.ac.uk/data/2011/04/01/pdf-selected-as-interchange-format/'
p48
sVhttp://t.co/pdzFM1G
p49
S'http://open.spotify.com/user/kierdavis/playlist/5gOp7x69F9StEymPVOgqeE'
p50
sVhttp://bit.ly/mV8eub
p51
S'http://www.lucidimagination.com/blog/2011/07/28/dont-use-java-7-for-anything/'
p52
sVhttp://t.co/R31dPTS
p53
S'http://www.bbc.co.uk/news/technology-14322957?utm_source=twitterfeed&utm_medium=twitter'
p54
sVhttp://t.co/UnSHFir
p55
S'http://www.jenitennison.com/blog/node/160'
p56
sVhttp://j.mp/pOJavs
p57
S'http://techcrunch.com/2011/07/10/building-an-enterprise-software-company-that-doesnt-suck/'
p58
sVhttp://t.co/ii8o10j
p59
S'http://www.youtube.com/watch?v=sognAcZqFo4&feature=youtu.be'
p60
sVhttp://t.co/QQQZrGg
p61
S'http://callumjones.blog.com/2011/07/27/the-truth-about-the-bbc/'
p62
sVhttp://t.co/NJYIw0N
p63
S'http://tabs.ultimate-guitar.com/m/misc_unsigned_bands/ross_singer_-_riff1_btab.htm'
p64
sVhttp://t.co/fNhjZfq
p65
S'http://open.spotify.com/track/1I0hFGsgA5pJqutFzwTNQf'
p66
sVhttp://bit.ly/mnRwVq
p67
S'http://c561635.r35.cf2.rackcdn.com/11-944-WP-students-at-heart.pdf'
p68
sVhttp://bit.ly/n5mW8h
p69
S'http://www.guardian.co.uk/higher-education-network/blog/2011/jun/30/private-higher-education-providers-and-reform'
p70
sVhttp://bit.ly/eXkPLS
p71
S'http://www.daveyp.com/cgi-bin/crystal/ball.pl?1299246655'
p72
sVhttp://bit.ly/pfHcOS
p73
S'http://m.theatlantic.com/politics/archive/2011/07/the-chart-that-should-accompany-all-discussions-of-the-debt-ceiling/242484/'
p74
sVhttp://t.co/pPJQTg8
p75
S'http://mac.github.com/'
p76
sVhttp://t.co/ZBJ7UMD
p77
S'http://blog.iandavis.com/2011/07/18/kasabi-transit-data-for-new-york-city/'
p78
sVhttp://t.co/QCh8ecw
p79
S'http://www.youtube.com/watch?v=NI9EmaruT0s&feature=share'
p80
sVhttp://t.co/e2ibxkR
p81
S'http://semanticweb.com/thoughts-on-google-plus-the-magic-isnt-social-its-semantic_b21852'
p82
sVhttp://t.co/pHkHhh5
p83
S'http://www.bbc.co.uk/blogs/markkermode/2011/07/smells_like_smurf_spirit.html'
p84
sVhttp://bbc.in/qYhrZ3
p85
S'http://www.bbc.co.uk/news/uk-14070733'
p86
sVhttp://bit.ly/nLuEzD
p87
S'http://lrt.mmu.ac.uk/w2c/2011/07/27/our-new-moodle-theme/'
p88
sVhttp://t.co/ESYhhZg
p89
S'http://www.youtube.com/watch?v=jO0VLouJFNQ'
p90
sVhttp://t.co/kj9QVxp
p91
S'http://opendatachallenge.org'
p92
sVhttp://t.co/71tbEjq
p93
S'http://www.timeshighereducation.co.uk/story.asp?storycode=414089#.TjLY1QVkZ8A.twitter'
p94
sVhttp://t.co/mlO94el
p95
S'http://www.independent.co.uk/sport/football/news-and-comment/click-and-buy-how-scouting-embraced-the-21st-century-2326368.html'
p96
sVhttp://bit.ly/nWmKfE
p97
S'http://blog.palantirtech.com/2010/03/08/friction-in-human-computer-symbiosis-kasparov-on-chess/'
p98
sVhttp://t.co/gBNDGtc
p99
S'http://www.instigatorblog.com/dont-code/2011/05/06/'
p100
sVhttp://www.legislation.gov.uk/ukpga/2000/36/schedule/1
p101
S'http://www.legislation.gov.uk/ukpga/2000/36/schedule/1/data.htm'
p102
sVhttp://bit.ly/oMvqPt
p103
S'http://brightlemon.com/blog/open-government-visualisation-tools-open-data-resources-and-application-examples'
p104
sVhttp://t.co/94dhMef
p105
S'http://www.youtube.com/watch?v=COkya7N3pB8&feature=youtube_gdata_player'
p106
sVhttp://bit.ly/hN3l4a
p107
S'http://www.tweekly.fm/twitter/kierdavis'
p108
sVhttp://bit.ly/nvVIsC
p109
S'http://www.wired.com/wiredscience/2011/07/genome-structure/'
p110
sVhttp://t.co/RmqzAIM
p111
S'http://www.volkszone.co.uk/brian/PIKEYS.jpg'
p112
sVhttp://bit.ly/qz3Peb
p113
S'http://www.zdnet.com/blog/hardware/amazons-kindle-tablet-doesnt-need-to-be-an-ipad-killer-to-be-a-winner/13939'
p114
sVhttp://t.co/W2elWir
p115
S'https://forums.aws.amazon.com/message.jspa?messageID=132032'
p116
sVhttp://t.co/o2B5Y0q
p117
S'http://www.openforum.com/articles/how-ahalife-grew-600-percent-by-telling-the-story-behind-products?extlink=em-openf-SBdaily'
p118
sVhttp://t.co/pjxSGx8
p119
S'http://semanticweb.com/kasabi-sees-a-business-model-in-rdf-data_b21385'
p120
sVhttp://t.co/vXcvyCX
p121
S'http://www.buzzfeed.com/awesomer/50-company-names-you-probably-didnt-know-the-orig'
p122
sVhttp://fb.me/1bviiXEYQ
p123
S'http://blog.brooksengland.com/wps/brooks-is-closed/'
p124
sVhttp://t.co/JqhsxtR
p125
S'http://twitpic.com/5xs1vy'
p126
sVhttp://t.co/OlkW59M
p127
S'http://www.regonline.com/Register/Checkin.aspx?EventID=962797'
p128
sVhttp://t.co/wkm6wIi
p129
S'http://www.itworld.com/it-managementstrategy/187543/when-google-kills-your-account-what-happens-your-android-phone'
p130
sVhttp://t.co/kjQCUXM
p131
S'http://www.lovelifeloverunning.co.uk/'
p132
sVhttp://t.co/0n4EZtr
p133
S'http://soundcloud.com/radiohead/03-separator-four-tet-rmx'
p134
sVhttp://t.co/vXv4CGr
p135
S'http://www.youtube.com/watch?v=C_Pk5EE5QV8'
p136
sVhttp://t.co/DOBOnlk
p137
S'http://data.gov.uk/organogram'
p138
sVhttp://t.co/rJksGdS
p139
S'http://www.guardian.co.uk/society/2011/jul/19/nhs-services-open-to-competition?CMP=twt_gu'
p140
sVhttp://data.ordnancesurvey.co.uk/id/50kGazetteer/209157
p141
S'http://data.ordnancesurvey.co.uk/doc/50kGazetteer/209157.html'
p142
sVhttp://bit.ly/qUnRjB
p143
S'http://blog.kasabi.com/2011/07/29/featured-dataset-iati/'
p144
sVhttp://techme.me/BmV2
p145
S'http://www.techmeme.com/110711/p2#a110711p2'
p146
sVhttp://t.co/vJNnELG
p147
S'http://beta.kasabi.com/dataset/iati'
p148
sVhttp://bit.ly/ewPu7Y
p149
S'http://www.birminghampost.net/birmingham-business/birmingham-business-news/legal-business/2011/03/11/wragge-co-advises-on-18m-talis-deal-65233-28321104/'
p150
sVhttp://goo.gl/fb/uPxmh
p151
S'http://www.mediamolecule.com/lab/article/doing_exactly_the_right_amount_of_work/?utm_source=feedburner&utm_medium=twitter&utm_campaign=Feed%3A+MmLab+The+Lab'
p152
sVhttp://bit.ly/qFimKA
p153
S'http://www.talisaspire.com/2011/07/12/campus-edition-new-features-april-june-2011/'
p154
sVhttp://bit.ly/qHcuGd
p155
S'http://www.talisaspire.com/newsletter/july-2011/'
p156
sVhttp://bit.ly/j
p157
S'http://www.justinrummel.com/'
p158
sVhttp://bit.ly/lI3hgT
p159
S'http://tbe.taleo.net/NA9/ats/careers/requisition.jsp?org=TALIS&cws=1&rid=37'
p160
sVhttp://j.mp/n19unG
p161
S'http://adage.com/article/digital/google-readies-ambitious-plan-web-data-exchange/228637/'
p162
sVhttp://bit.ly/km7pwr
p163
S'http://www.openarts.org/matt/downloads/WoodenLogic.pdf'
p164
sVhttp://t.co/liqLeDE
p165
S'http://www.thebitsource.com/featured-posts/rackspace-cloud-servers-versus-amazon-ec2-performance-analysis/'
p166
sVhttp://t.co/jfu1IXp
p167
S'http://www.guardian.co.uk/commentisfree/2011/jul/24/charlie-brooker-norway-mass-killings?CMP=twt_iph'
p168
sVhttp://bit.ly/okVJPD
p169
S'http://goods.us.marketgid.com/goods/1405/477092/'
p170
sVhttp://natpo.st/qPzOPd
p171
S'http://business.financialpost.com/2011/07/28/u-s-balance-now-less-than-apple-cash/'
p172
sVhttp://t.co/PC9U6Qs
p173
S'http://yfrog.com/kixxzacj'
p174
sVhttp://t.co/MZQEULq
p175
S'http://blog.kasabi.com/2011/07/26/featured-datasets-nhs-organizations-and-performance-data/'
p176
sVhttp://t.co/Mo4ExFg
p177
S'http://thenextweb.com/media/2011/07/30/how-musicians-are-making-money-by-returning-to-their-roots/?utm_source=feedburner&utm_medium=feed&utm_campaign=Feed:+TheNextWeb+(The+Next+Web+All+Stories)&utm_content=Google+Reader'
p178
sVhttp://bit.ly/eF8eaa
p179
S'http://www.daveyp.com/cgi-bin/crystal/ball.pl?1299246763'
p180
sVhttp://gowal.la/c/4AfwK
p181
S'http://gowalla.com/checkins/40632175'
p182
sVhttp://t.co/9WDYIqF
p183
S'http://beta.kasabi.com/dataset/mot-testing-stations'
p184
sVhttp://bit.ly/nxz42o
p185
S'http://www.talisaspire.com/2011/07/21/related-content-widget/'
p186
sVhttp://t.co/uTOoU8M
p187
S'http://opencompute.org'
p188
sVhttp://t.co/iSQEOgZ
p189
S'http://blog.pachube.com/2011/05/crowdsourcing-open-data-evolving-into.html'
p190
sVhttp://www.worldtimebuddy.com/?lid=2656173,5391959
p191
S'http://www.worldtimebuddy.com/'
p192
sVhttp://t.co/hU8OkxE
p193
S'http://consulting.talis.com/2011/07/should-seo-focus-in-on-linked-data/'
p194
sVhttp://bit.ly/oSdmmj
p195
S'http://reviews.cnet.co.uk/software-and-web-apps/how-to-create-ebooks-using-os-x-lion-50004548/prices/'
p196
sVhttp://t.co/hiwCXGq
p197
S'http://paulrobertlloyd.com/2011/07/the_skys_the_limit/'
p198
sVhttp://t.co/UFZyNxA
p199
S'http://soundcloud.com/nosajthing'
p200
sVhttp://me.lt/5U0tZ
p201
S'http://blogs.worldbank.org/developmenttalk/open-data-is-not-enough-0'
p202
sVhttp://t.co/XWf619j
p203
S'http://papers.ssrn.com/sol3/papers.cfm?abstract_id=1450006'
p204
sVhttp://poss.gliderlab.com/
p205
S'http://poss.gliderlab.com/w/page/2018537/FrontPage'
p206
sVhttp://t.co/lsk3Fs2
p207
S'http://blog.kasabi.com/2011/07/28/open-gov-hackday/'
p208
sVhttp://t.co/g9c6io2
p209
S'http://blog.kasabi.com/2011/07/29/featured-dataset-iati/'
p210
sVhttp://bit.ly/r3MeCN
p211
S'http://www.legislation.gov.uk/ukpga/2011/9/enacted/data.htm'
p212
sVhttp://t.co/RhiLEaO
p213
S'http://www.youtube.com/watch?v=kdnwDbe16MQ&feature=share'
p214
sVhttp://t.co/WmuftGL
p215
S'http://blog.kasabi.com/2011/07/14/featured-dataset-foodista/'
p216
sVhttp://t.co/6V1PFHM
p217
S'http://digital.humanities.ox.ac.uk/DHSS2011/index.html'
p218
sVhttp://t.co/pwmtrHJ
p219
S'http://www.legislation.gov.uk/data.htm'
p220
sVhttp://bit.ly/pQ7CdG
p221
S'http://www.gameinformer.com/b/news/archive/2011/07/30/littlebigplanet-2-getting-toy-story-levels-and-costumes.aspx'
p222
sVhttp://t.co/6clab4W
p223
S'http://data.gov.uk/organogram/cabinet-office'
p224
sVhttp://t.co/BSFNCVG
p225
S'http://en.wikipedia.org/wiki/John_Craven'
p226
sVhttp://t.co/vq7eGx5
p227
S'http://finance.yahoo.com/banking-budgeting/article/113086/bubble-destroyed-middle-class-marketwatch?mod=bb-budgeting&sec=topStories&pos=5&asset=&ccode='
p228
sVhttp://t.co/t6AXf70
p229
S'http://kasabi-culture-estwhdr.eventbrite.com'
p230
sVhttp://www.youtube.com/watch?v=mGOY0-LaV7Y&list=SL
p231
S'http://www.youtube.com/verify_age?next_url=http%3A//www.youtube.com/watch%3Fv%3DmGOY0-LaV7Y%26list%3DSL'
p232
sVhttp://open.vocab.org/terms/phoneNumber
p233
S'http://open.vocab.org/docs/phoneNumber.html'
p234
sVhttp://bit.ly/fhafwh
p235
S'http://www.daveyp.com/cgi-bin/crystal/ball.pl?1299246700'
p236
sVhttp://bit.ly/mVZcy0
p237
S'http://blog.josema.net/2011/07/24/transition-wf/'
p238
s.