(dp0
S'http://dlanham.com/ui/sticker/'
p1
g1
sS'http://www.zachbeauvais.com/archives/tablets/'
p2
g2
sS'http://julianhigman.com/blog/2009/04/06/cultural-agoraphobia/'
p3
g3
sS'http://malcolmlandon.wordpress.com/2007/11/15/nintendo-not-holding-stock-back/'
p4
g4
sS'http://blog.iandavis.com/2011/03/21/idiomatic-json/'
p5
g5
sS'http://wonderfulworldofmrc.blogspot.com/2005/11/john-battelle-discusses-building.html'
p6
g6
sS'http://taia.co/qCvuHZ'
p7
S'http://www.businessinsider.com/fyi-linkedin-is-using-your-photo-and-your-actions-in-social-advertising-2011-7'
p8
sS'http://blog.iandavis.com/2011/07/07/in-search-of-ambiguity/'
p9
g9
sS'http://bit.ly/qwSidv'
p10
S'http://semanticweb.com/thoughts-on-google-plus-the-magic-isnt-social-its-semantic_b21852'
p11
sVhttp://t.co/VFgMHnF
p12
Vhttp://t.co/Overview.html.utf-8
p13
sVhttp://t.co/y8IR9YN
p14
S'http://www.youtube.com/watch?v=ZucJAkzCNq8&feature=share'
p15
sS'http://informationtakesover.co.uk/2011/07/winning-video-from-sssw11/'
p16
g16
sVhttp://bit.ly/mSSzKw
p17
S'http://www.talisaspire.com/2011/07/11/lancaster-university-selects-talis-aspire-campus-edition/'
p18
sS'http://julianhigman.com/blog/2011/04/04/enable-trackpad-coasting-in-ubuntu/'
p19
g19
sS'http://www.virtualchaos.co.uk/blog/2009/02/22/the-palestinian-perspective-what-the-world-looks-like-from-the-west-bank/'
p20
g20
sS'http://bit.ly/hQoIyW'
p21
S'http://assistantblog.co.uk/2011/01/10/bird-drawings-needed/'
p22
sVhttp://t.co/SOTI5Qg
p23
S'http://linkedmanchester.org'
p24
sS'http://www.slideshare.net/zbeauvais/commercial-break-linked-data-for-business'
p25
g25
sS'http://www.justinleavesley.com/journal/2005/8/9/semantic-superpositions.html'
p26
g26
sS'http://www.wearmouth.demon.co.uk/'
p27
g27
sS'http://memeburn.com/2010/11/humans-vs-machines-aggregation-vs-curation/'
p28
g28
sS'http://j.mp/owPhoU'
p29
S'http://timhodson.com/2011/08/iphone-cycle-mount-mark-one/'
p30
sVhttp://t.co/QQQZrGg
p31
S'http://callumjones.blog.com/2011/07/27/the-truth-about-the-bbc/'
p32
sS'http://t.co/g09dWGC'
p33
S'http://consulting.talis.com/2011/07/significant-bibliographic-linked-data-release-from-the-british-library/?utm_source=twitterfeed&utm_medium=twitter'
p34
sS'http://www.wildbunny.co.uk/blog/2011/04/06/physics-engines-for-dummies/'
p35
g35
sS'http://www.youtube.com/watch?v=xwBK31tC5QM'
p36
g36
sVhttp://bit.ly/n5mW8h
p37
S'http://www.guardian.co.uk/higher-education-network/blog/2011/jun/30/private-higher-education-providers-and-reform'
p38
sS'http://del.icio.us/zachbeauvais#2009-02-24'
p39
S'http://www.delicious.com/zachbeauvais'
p40
sVhttp://t.co/XWf619j
p41
S'http://papers.ssrn.com/sol3/papers.cfm?abstract_id=1450006'
p42
sS'http://t.co/tp4lfv2'
p43
S'http://beta.kasabi.com/dataset/southampton-postcodes'
p44
sVhttp://bbc.in/qYhrZ3
p45
S'http://www.bbc.co.uk/news/uk-14070733'
p46
sS'http://www.zachbeauvais.com/archives/american-perspective/'
p47
g47
sVhttp://t.co/kj9QVxp
p48
S'http://opendatachallenge.org'
p49
sS'http://wonderfulworldofmrc.blogspot.com/2007/01/perfect-desktop.html'
p50
g50
sS'http://slashdotrobot.wordpress.com/2008/04/12/%e6%97%a5%e6%9c%ac%e5%9b%bd-tokyo-international-forum/'
p51
g51
sS'http://wonderfulworldofmrc.blogspot.com/2007/03/join-revolution-20-minute-union.html'
p52
g52
sVhttp://bit.ly/nvVIsC
p53
S'http://www.wired.com/wiredscience/2011/07/genome-structure/'
p54
sS'http://t.co/EF'
p55
g55
sS'http://t.co/Cg9J3y8'
p56
S'http://consulting.talis.com/2011/07/should-seo-focus-in-on-linked-data/'
p57
sS'http://itoccurs.wordpress.com/2007/10/28/a-man-in-a-fish-tank-and-the-golden-gate-bridge/'
p58
g58
sS'http://del.icio.us/zachbeauvais#2009-04-14'
p59
S'http://www.delicious.com/zachbeauvais'
p60
sS'http://bit.ly/czy4NP'
p61
S'http://www.tweekly.fm/twitter/iand'
p62
sVhttp://t.co/pjxSGx8
p63
S'http://semanticweb.com/kasabi-sees-a-business-model-in-rdf-data_b21385'
p64
sS'http://itoccurs.wordpress.com/2007/10/29/clam-chowder-and-cable-cars/'
p65
g65
sVhttp://t.co/vXcvyCX
p66
S'http://www.buzzfeed.com/awesomer/50-company-names-you-probably-didnt-know-the-orig'
p67
sVhttp://fb.me/1bviiXEYQ
p68
S'http://blog.brooksengland.com/wps/brooks-is-closed/'
p69
sVhttp://t.co/KaOHO0B
p70
S'http://musicmachinery.com/2011/05/14/how-good-is-googles-instant-mix/'
p71
sS'http://wonderfulworldofmrc.blogspot.com/2007/03/what-web20-developer-networks-should-be.html'
p72
g72
sS'http://www.virtualchaos.co.uk/blog/2011/04/07/a-thought-5/'
p73
g73
sVhttp://t.co/0n4EZtr
p74
S'http://soundcloud.com/radiohead/03-separator-four-tet-rmx'
p75
sS'http://www.zachbeauvais.com/archives/what-is-your-view-on-psychics-who-claim-to-be-able-to-relay-messages-from-dead-relatives/'
p76
g76
sS'http://del.icio.us/zachbeauvais#2009-03-12'
p77
S'http://www.delicious.com/zachbeauvais'
p78
sS'http://dynamicorange.com/2010/06/24/youre-not-the-one-and-only/'
p79
g79
sVhttp://t.co/rJksGdS
p80
S'http://www.guardian.co.uk/society/2011/jul/19/nhs-services-open-to-competition?CMP=twt_gu'
p81
sVhttp://data.ordnancesurvey.co.uk/id/50kGazetteer/209157
p82
S'http://data.ordnancesurvey.co.uk/doc/50kGazetteer/209157.html'
p83
sVhttp://bit.ly/qUnRjB
p84
S'http://blog.kasabi.com/2011/07/29/featured-dataset-iati/'
p85
sVhttp://t.co/RmqzAIM
p86
S'http://www.volkszone.co.uk/brian/PIKEYS.jpg'
p87
sVhttp://bit.ly/ewPu7Y
p88
S'http://www.birminghampost.net/birmingham-business/birmingham-business-news/legal-business/2011/03/11/wragge-co-advises-on-18m-talis-deal-65233-28321104/'
p89
sS'http://www.zachbeauvais.com/archives/injury-lessons/'
p90
g90
sVhttp://goo.gl/fb/uPxmh
p91
S'http://www.mediamolecule.com/lab/article/doing_exactly_the_right_amount_of_work/?utm_source=feedburner&utm_medium=twitter&utm_campaign=Feed%3A+MmLab+The+Lab'
p92
sS'http://t.co/XlQH04X'
p93
S'http://www.extremetech.com/internet/91176-adobe-edge-completing-the-flash-html-cycle'
p94
sS'http://www.getskeleton.com/'
p95
g95
sS'http://blogs.discovermagazine.com/cosmicvariance/2011/07/13/free-will-is-as-real-as-baseball/'
p96
g96
sVhttp://j.mp/n19unG
p97
S'http://adage.com/article/digital/google-readies-ambitious-plan-web-data-exchange/228637/'
p98
sS'http://semanticweb.com/talis%E2%80%99s-kasabi-enters-public-beta_b20332'
p99
g99
sS'http://inspector.sindice.com/'
p100
g100
sS'http://www.virtualchaos.co.uk/blog/2009/05/25/jin-roh-the-wolf-brigade/'
p101
g101
sVhttp://t.co/liqLeDE
p102
S'http://www.thebitsource.com/featured-posts/rackspace-cloud-servers-versus-amazon-ec2-performance-analysis/'
p103
sS'http://code.google.com/p/microblog-purple/'
p104
g104
sS'http://www.fpga4fun.com/FPGAsoftware2.html'
p105
g105
sS'http://beobal.com/blog/2006/11/geeking-with-greg'
p106
g106
sVhttp://t.co/Mo4ExFg
p107
S'http://thenextweb.com/media/2011/07/30/how-musicians-are-making-money-by-returning-to-their-roots/?utm_source=feedburner&utm_medium=feed&utm_campaign=Feed:+TheNextWeb+(The+Next+Web+All+Stories)&utm_content=Google+Reader'
p108
sS'http://malcolmlandon.wordpress.com/2007/11/12/a-german-wii-for-christmas/'
p109
g109
sVhttp://bit.ly/hN3l4a
p110
S'http://www.tweekly.fm/twitter/kierdavis'
p111
sS'http://www.diycalculator.com/popup-m-hrrgcomp.shtml'
p112
g112
sVhttp://t.co/uTOoU8M
p113
S'http://opencompute.org'
p114
sS'http://blog.iandavis.com/2010/12/06/back-to-basics/'
p115
g115
sVhttp://bit.ly/km7pwr
p116
S'http://www.openarts.org/matt/downloads/WoodenLogic.pdf'
p117
sS'http://www.zachbeauvais.com/archives/a-few-desert-images/'
p118
g118
sS'http://www.virtualchaos.co.uk/blog/2009/02/08/linked-data-and-scientific-publishing/'
p119
g119
sS'http://t.co/8mzHnzO\xe2\x80\x9d'
p120
g120
sS'http://blog.iandavis.com/2011/07/10/ordnance-survey-linksets-on-kasabi/'
p121
g121
sVhttp://t.co/hiwCXGq
p122
S'http://paulrobertlloyd.com/2011/07/the_skys_the_limit/'
p123
sS'http://www.solving-math-problems.com/calculate-square-root.html#Detail'
p124
g124
sS'http://julianhigman.com/blog/2009/05/14/stefan-tilkov-talks-about-rest/'
p125
g125
sS'http://read.bi/gK87cf'
p126
S'http://www.businessinsider.com/6-ways-to-make-your-tv-smarter-2010-12'
p127
sS'http://www.justinleavesley.com/journal/2008/8/27/edge-economy.html'
p128
g128
sS'http://www.astilla.co.uk/blog/cinema-masses'
p129
g129
sS'http://t.co/nJRMZ9y'
p130
S'http://collabor8now.com/2011/07/libraries-innovating-with-linked-data/#linkeddata'
p131
sVhttp://t.co/6V1PFHM
p132
S'http://digital.humanities.ox.ac.uk/DHSS2011/index.html'
p133
sS'http://julianhigman.com/blog/2009/08/10/agile-coaching-new-book-from-rachel-davies/'
p134
g134
sS'http://www.virtualchaos.co.uk/blog/2009/07/19/combining-minimising-and-distributing-javascripts/'
p135
g135
sVhttp://t.co/pwmtrHJ
p136
S'http://www.legislation.gov.uk/data.htm'
p137
sS'http://labs.nationalarchives.gov.uk/wordpress/index.php/2011/07/datasets/'
p138
g138
sVhttp://t.co/vq7eGx5
p139
S'http://finance.yahoo.com/banking-budgeting/article/113086/bubble-destroyed-middle-class-marketwatch?mod=bb-budgeting&sec=topStories&pos=5&asset=&ccode='
p140
sS'http://www.slideshare.net/sjbrinker/data-web-marketing'
p141
g141
sS'http://malcolmlandon.wordpress.com/2007/09/05/i-am-a-facebook-widower/'
p142
g142
sS'http://dynamicorange.com/2010/01/27/ground-roundup-of-new-ereaders-at-ces-on-cnn/'
p143
g143
sS'http://www.zachbeauvais.com/archives/hasbean/'
p144
g144
sS'http://data.gov.uk/dataset/nptg'
p145
g145
sS'http://vintagefuture.tumblr.com/'
p146
g146
sS'http://itoccurs.wordpress.com/2008/04/01/perth-a-welcoming-state-capitol/'
p147
g147
sS'http://t.co/tUG3emo'
p148
S'https://www.icloud.com/'
p149
sS'http://worrydream.com/Tangle/'
p150
g150
sVhttp://t.co/qG3QxEL
p151
S'http://lockerz.com/s/124664344'
p152
sS'http://www.zachbeauvais.com/archives/shropshire-photos/'
p153
g153
sS'http://www.youtube.com/watch?v=l0Lm9moEoH0'
p154
g154
sVhttp://bit.ly/dXpIWY.
p155
S'http://www.talisaspire.com/'
p156
sVhttp://t.co/talCDni
p157
S'http://twitpic.com/5umta5'
p158
sS'http://dynamicorange.com/2010/11/03/web-of-data/'
p159
g159
sS'http://www.youtube.com/watch?v=XWcIhSCJ4BE'
p160
g160
sS'http://wonderfulworldofmrc.blogspot.com/2005/10/how-to-build-software.html'
p161
g161
sVhttp://t.co/hvH55Wa
p162
S'http://www.justgiving.com/Alexa-Torlo/3'
p163
sS'http://wonderfulworldofmrc.blogspot.com/2005/10/less-is-more.html'
p164
g164
sVhttp://t.co/lCoc8qT
p165
S'http://semanticweb.com/british-library-announces-major-release-of-linked-data_b21499'
p166
sS'http://j.mp/rlKe4A'
p167
S'http://www.guardian.co.uk/environment/bike-blog/2011/aug/01/cyclist-take-the-lane?CMP=twt_gu'
p168
sS'http://t.co/ImEh1jR'
p169
S'http://open.spotify.com/track/3oQRHsXWFucMeE2I2DHT7F'
p170
sS'http://www.virtualchaos.co.uk/blog/2010/12/16/diana-laufenberg-how-to-learn-from-mistakes/'
p171
g171
sS'http://julianhigman.com/blog/2010/09/27/installing-ruby-active-record-on-ubuntu-10-04/'
p172
g172
sS'http://www.virtualchaos.co.uk/blog/2009/08/28/dan-pink-on-the-surprising-science-of-motivation/'
p173
g173
sVhttp://is.gd/c2GxAm
p174
S'http://blogs.ecs.soton.ac.uk/data/2011/04/01/pdf-selected-as-interchange-format/'
p175
sVhttp://t.co/pdzFM1G
p176
S'http://open.spotify.com/user/kierdavis/playlist/5gOp7x69F9StEymPVOgqeE'
p177
sS'http://www.youtube.com/watch?v=zzfQwXEqYaI&feature=related'
p178
g178
sS'http://informationtakesover.co.uk/2010/02/a-little-bash-deployment-assistant/'
p179
g179
sS'http://data.gov.uk/dataset/nptdr'
p180
g180
sS'http://free.pages.at/easyfilter/bresenham.html'
p181
g181
sS'http://t.co/N8qnIHB'
p182
S'http://www.ashleyb.org/archives/001454.html'
p183
sS'http://t.co/4zMO26m'
p184
S'http://uk.dahon.com/accessories/2010/biologic-bike-mount-iphone'
p185
sS'http://www.zachbeauvais.com/archives/nodalities-and-facebooks-david-recordon/'
p186
g186
sS'http://www.virtualchaos.co.uk/blog/2009/05/19/seth-godin-on-the-tribes-we-lead/'
p187
g187
sS'http://informationtakesover.co.uk/2010/04/an-easter-birdy/'
p188
g188
sVhttp://t.co/fNhjZfq
p189
S'http://open.spotify.com/track/1I0hFGsgA5pJqutFzwTNQf'
p190
sS'http://www.flickr.com/photos/-2x4-/sets/72157622387899624/with/3971739850/'
p191
g191
sS'http://www.astilla.co.uk/blog/great-service-tsohostcouk'
p192
g192
sVhttp://bit.ly/pfHcOS
p193
S'http://m.theatlantic.com/politics/archive/2011/07/the-chart-that-should-accompany-all-discussions-of-the-debt-ceiling/242484/'
p194
sS'http://www.justinleavesley.com/journal/2006/11/26/ecosystem-1-physical-technology-meets-social-technology.html'
p195
g195
sS'http://www.virtualchaos.co.uk/blog/2009/05/19/im-married/'
p196
g196
sS'http://www.virtualchaos.co.uk/blog/2010/04/03/derek-sivers-how-to-start-a-movement/'
p197
g197
sS'http://beobal.com/blog/2007/05/xtech'
p198
g198
sVhttp://t.co/pHkHhh5
p199
S'http://www.bbc.co.uk/blogs/markkermode/2011/07/smells_like_smurf_spirit.html'
p200
sS'http://code.google.com/p/pyqrnative/'
p201
g201
sS'http://twitpic.com/595j2k'
p202
g202
sS'http://t.co/RAxSoog'
p203
S'http://consulting.talis.com/2011/07/should-seo-focus-in-on-linked-data/'
p204
sS'http://wiki.dbpedia.org/Downloads36'
p205
g205
sS'http://www.astilla.co.uk/blog/switched-drupal'
p206
g206
sS'http://www.freesound.org/index.php'
p207
g207
sS'http://www.slideshare.net/bengee/rdf-and-sparql-for-php-developers-at-new-york-semantic-web-meetup'
p208
g208
sS'http://notes.3kbo.com/kasabi'
p209
g209
sS'http://www.oucs.ox.ac.uk/oxpoints/'
p210
g210
sS'http://charliepark.org/slopegraphs/'
p211
g211
sS'http://www.youtube.com/watch?v=jO0VLouJFNQ'
p212
g212
sS'http://blog.iandavis.com/2010/12/06/to-wordpress/'
p213
g213
sS'http://www.zachbeauvais.com/archives/ebook-data/'
p214
g214
sS'http://lin-clark.com/blog/two-meanings-semantics-html5'
p215
g215
sS'http://t.co/7k1dOea'
p216
S'http://damnyouautocorrect.com/10268/locked-up-2/'
p217
sS'http://t.co/z5a4YnX'
p218
S'https://plus.google.com/116964689984896197121/posts/H5fc19KL691'
p219
sS'http://t.co/miJK4NJ'
p220
S'http://www.zdnet.com/blog/violetblue/how-the-new-8216protecting-children-bill-puts-you-at-risk/590'
p221
sVhttp://bit.ly/qz3Peb
p222
S'http://www.zdnet.com/blog/hardware/amazons-kindle-tablet-doesnt-need-to-be-an-ipad-killer-to-be-a-winner/13939'
p223
sVhttp://t.co/vJNnELG
p224
S'http://beta.kasabi.com/dataset/iati'
p225
sVhttp://t.co/o2B5Y0q
p226
S'http://www.openforum.com/articles/how-ahalife-grew-600-percent-by-telling-the-story-behind-products?extlink=em-openf-SBdaily'
p227
sS'http://slashdotrobot.wordpress.com/2008/04/13/throttle-bodies/'
p228
g228
sS'http://t.co/HQKaOVw'
p229
S'http://elidourado.com/blog/et-and-debt-ceiling/'
p230
sVhttp://t.co/PMdh8zH
p231
S'http://consulting.talis.com/2011/07/uk-government-commits-to-more-open-data/'
p232
sS'http://beobal.com/blog/2007/08/just-for-dave'
p233
g233
sS'http://excamera.com/sphinx/gameduino/'
p234
g234
sS'http://julianhigman.com/blog/2010/11/05/php-5-3-and-the-global-keyword/'
p235
g235
sS'http://slashdotrobot.wordpress.com/2008/04/12/%e6%97%a5%e6%9c%ac%e5%9b%bd-tsukiji/'
p236
g236
sS'http://go-lang.cat-v.org/'
p237
g237
sS'http://www.virtualchaos.co.uk/blog/2010/06/21/invictus/'
p238
g238
sS'http://www.virtualchaos.co.uk/blog/2009/09/18/beyond-web-2-0-how-rdfa-can-help-democratise-data-on-the-web/'
p239
g239
sS'http://www.virtualchaos.co.uk/blog/2009/10/19/death-note-a-modern-take-on-platos-gyges-ring/'
p240
g240
sS'http://www.zachbeauvais.com/archives/setting-aside-religion/'
p241
g241
sS'http://t.co/Nl4X4IS'
p242
S'http://vimeo.com/23418377'
p243
sS'http://www.justinleavesley.com/journal/2005/8/12/the-platform-is-dead-long-live-the-platform.html'
p244
g244
sS'http://t.co/0YTocAz'
p245
S'http://labs.data.gov.uk/lod/location/50.902093,\r\n\t-1.398722/driving-test-centre'
p246
sS'http://del.icio.us/zachbeauvais#2009-04-22'
p247
S'http://www.delicious.com/zachbeauvais'
p248
sS'http://t.co/Y6IdU8Z'
p249
S'http://spacetrek.tumblr.com/'
p250
sS'http://dynamicorange.com/2010/06/22/semtech-2010-san-francisco/'
p251
g251
sS'http://slashdotrobot.wordpress.com/2008/03/22/alfa-update/'
p252
g252
sS'http://beobal.com/blog/2007/01/flickr-machine-tags'
p253
g253
sS'http://t.co/lvMqnl4'
p254
S'http://semanticweb.com/jeni-tennison-on-web-development_b21803'
p255
sS'http://dilettantes.code4lib.org/blog/2010/11/linked-marc-codes/'
p256
g256
sVhttp://bit.ly/qFBnpG.
p257
S'http://blog.lboro.ac.uk/mtrlc/'
p258
sVhttp://t.co/jfu1IXp
p259
S'http://www.guardian.co.uk/commentisfree/2011/jul/24/charlie-brooker-norway-mass-killings?CMP=twt_iph'
p260
sS'http://bit.ly/pdvpgk'
p261
S'http://arstechnica.com/apple/news/2011/08/ios-devs-put-out-a-call-to-unite-against-lodsys-other-patent-trolls.ars'
p262
sS'http://wonderfulworldofmrc.blogspot.com/2007/01/well-im-back.html'
p263
g263
sS'http://t.co/AO7HR75'
p264
S'http://www.macstories.net/mac/os-x-lion-installation-guide-boot-discs-and-qa/'
p265
sVhttp://bit.ly/eF8eaa
p266
S'http://www.daveyp.com/cgi-bin/crystal/ball.pl?1299246763'
p267
sVhttp://t.co/71tbEjq
p268
S'http://www.timeshighereducation.co.uk/story.asp?storycode=414089#.TjLY1QVkZ8A.twitter'
p269
sS'http://blog.iandavis.com/2011/04/06/rdf-json-usability/'
p270
g270
sS'http://wonderfulworldofmrc.blogspot.com/2005/10/joining-together-semantic-networks-and.html'
p271
g271
sS'http://wonderfulworldofmrc.blogspot.com/2005/10/e-learning-20.html'
p272
g272
sS'http://chem-bla-ics.blogspot.com/2011/07/chempedia-rdf-3-uploading-data-to.html'
p273
g273
sS'http://blog.iandavis.com/2011/07/18/kasabi-transit-data-for-new-york-city/'
p274
g274
sS'http://slashdotrobot.wordpress.com/2008/04/06/eaton-m45/'
p275
g275
sS'http://www.youtube.com/watch?v=486QvybwTe0&feature=related'
p276
g276
sS'http://www.visualdataweb.org/tfacet.php'
p277
g277
sS'http://t.co/le0kKFH'
p278
S'http://kwijibo.talis.com/metoffice/'
p279
sS'http://www.virtualchaos.co.uk/blog/2009/06/11/yusuf-islam-the-cat-of-old/'
p280
g280
sS'http://www.virtualchaos.co.uk/blog/2009/05/25/anime-reviews-afro-samurai-resurrection-plus-more/'
p281
g281
sS'http://www.zachbeauvais.com/archives/ipad-new/'
p282
g282
sVhttp://t.co/UFZyNxA
p283
S'http://soundcloud.com/nosajthing'
p284
sS'http://www.virtualchaos.co.uk/blog/2009/02/22/2009-an-update/'
p285
g285
sVhttp://me.lt/5U0tZ
p286
S'http://blogs.worldbank.org/developmenttalk/open-data-is-not-enough-0'
p287
sS'http://tl.gd/767sqr'
p288
S'http://www.twitlonger.com/show/767sqr'
p289
sS'http://www.justinleavesley.com/journal/2005/8/10/will-the-real-semantic-web-please-stand-up.html'
p290
g290
sS'http://www.youtube.com/watch?v=dJsDFij0JRY'
p291
g291
sS'http://itoccurs.wordpress.com/2008/04/14/sydney-and-then-back-again/'
p292
g292
sS'http://www.slideshare.net/ldodds/creating-apis-over-rdf'
p293
g293
sVhttp://t.co/lsk3Fs2
p294
S'http://blog.kasabi.com/2011/07/28/open-gov-hackday/'
p295
sVhttp://bit.ly/r3MeCN
p296
S'http://www.legislation.gov.uk/ukpga/2011/9/enacted/data.htm'
p297
sS'http://wp.me/pPVt9-pg'
p298
S'http://blog.iandavis.com/2011/07/18/kasabi-transit-data-for-new-york-city/'
p299
sVhttp://bit.ly/oMvqPt
p300
S'http://brightlemon.com/blog/open-government-visualisation-tools-open-data-resources-and-application-examples'
p301
sS'http://informationtakesover.co.uk/2010/10/blog-in-blog-versions-in-the-wild/'
p302
g302
sS'http://dynamicorange.com/2010/01/29/left-wondering/'
p303
g303
sS'http://t.co/Bf0lQbI'
p304
S'http://www.videojug.com/film/how-to-perform-the-perfect-golf-swing'
p305
sVhttp://t.co/6clab4W
p306
S'http://data.gov.uk/organogram/cabinet-office'
p307
sVhttp://t.co/t6AXf70
p308
S'http://kasabi-culture-estwhdr.eventbrite.com'
p309
sVhttp://www.youtube.com/watch?v=mGOY0-LaV7Y&list=SL
p310
S'http://www.youtube.com/verify_age?next_url=http%3A//www.youtube.com/watch%3Fv%3DmGOY0-LaV7Y%26list%3DSL'
p311
sS'http://dynamicorange.com/2010/02/22/building-a-simple-http-to-z39-50-gateway-using-yaz4j-and-tomcat-index-data/'
p312
g312
sVhttp://open.vocab.org/terms/phoneNumber
p313
S'http://open.vocab.org/docs/phoneNumber.html'
p314
sS'http://amzn.to/rit5DT'
p315
g315
sS'http://www.essortment.com/5-recipes-homemade-chocolate-filling-13976.html'
p316
g316
sS'http://wonderfulworldofmrc.blogspot.com/2005/08/folksonomies-fascinate-me.html'
p317
g317
sS'http://t.co/u5dXtIk'
p318
S'http://consulting.talis.com/blog/#.Tilg15kbobs.twitter'
p319
sS'http://wonderfulworldofmrc.blogspot.com/2005/11/3d-interaction-for-future.html'
p320
g320
sS'http://goo.gl/fb/5EPHY'
p321
S'http://scholarlykitchen.sspnet.org/2011/08/01/will-open-data-solve-peer-review-concerns/?utm_source=feedburner&utm_medium=twitter&utm_campaign=Feed%3A+ScholarlyKitchen+%28The+Scholarly+Kitchen%29'
p322
sS'http://www.thedesignwork.com/45-free-small-symbols-vector-icon-sets/'
p323
g323
sVhttp://bit.ly/okVJPD
p324
S'http://goods.us.marketgid.com/goods/1405/477092/'
p325
sS'http://twitpic.com/5z8uhc'
p326
g326
sS'http://wonderfulworldofmrc.blogspot.com/2007/02/forget-everything-i-said-last-time.html'
p327
g327
sS'http://t.co/la1B8AN'
p328
S'http://cwkb.org/matrix/20100922'
p329
sS'http://wonderfulworldofmrc.blogspot.com/2007/03/masters-of-scrum.html'
p330
g330
sS'http://deck.ly/~jgLSL'
p331
g331
sVhttp://t.co/Yg26n8F
p332
S'http://google-latlong.blogspot.com/2011/07/catch-london-underground-with-google.html'
p333
sS'http://malcolmlandon.wordpress.com/2007/11/15/my-wii-woe-is-over/'
p334
g334
sS'http://www.zachbeauvais.com/archives/frypaper-an-interview-with-the-man-behind-stephen-frys-ipad-app/'
p335
g335
sVhttp://t.co/9ESjlZE
p336
S'http://googlecode.blogspot.com/2011/07/page-speed-service-web-performance.html'
p337
sVhttp://t.co/z404mVE
p338
S'http://www.wired.co.uk/news/archive/2011-07/27/children-as-scientists'
p339
sS'http://www.astilla.co.uk/2009/08/truecall'
p340
g340
sVhttp://ow.ly/5RbUi
p341
S'http://semanticweb.com/thoughts-on-google-plus-the-magic-isnt-social-its-semantic_b21852'
p342
sVhttp://www.sjjb.co.uk/mapicons/contactsheet
p343
Vhttp://www.sjjb.co.uk/mapicons/contactsheet.php
p344
sVhttp://t.co/oLW8xvG
p345
S'http://soundcloud.com/muterecords/apparat-black-water'
p346
sS'http://www.justinleavesley.com/journal/2008/8/22/infinity-in-a-grain-of-sand.html'
p347
g347
sS'http://tl.gd/767scv'
p348
S'http://www.twitlonger.com/show/767scv'
p349
sS'http://graphite.ecs.soton.ac.uk/stuff2rdf/'
p350
g350
sVhttp://t.co/4J0PxBi
p351
S'http://skitch.com/gridinoc/fca9e/amazon'
p352
sS'http://www.iconeden.com/icon/bright-free-stock-iconset.html'
p353
g353
sS'http://blog.okfn.org/2011/06/25/open-data-and-kasabi/'
p354
g354
sVhttp://skit.ch/b1ib
p355
S'https://skitch.com/rosssinger/few4h/code4lib-2008-lightning-talk-citation-parsing-made-easy-erik-hetzner'
p356
sS'http://slashdotrobot.wordpress.com/2008/05/18/two-weeks-two-new-cars-oops/'
p357
g357
sS'http://itoccurs.wordpress.com/2008/03/30/the-right-choice/'
p358
g358
sS'http://www.virtualchaos.co.uk/blog/2010/06/27/how-to-get-people-to-paying-for-content/'
p359
g359
sS'http://wonderfulworldofmrc.blogspot.com/2007/03/reader-development-podcast-finally.html'
p360
g360
sVhttp://bit.ly/mV8eub
p361
S'http://www.lucidimagination.com/blog/2011/07/28/dont-use-java-7-for-anything/'
p362
sS'http://deck.ly/~0Y3Tm'
p363
g363
sVhttp://t.co/UnSHFir
p364
S'http://www.jenitennison.com/blog/node/160'
p365
sS'http://t.co/l1gVcTC'
p366
S'http://bldgblog.blogspot.com/2011/08/nazca-city.html'
p367
sS'http://j.mp/fwY8Z1'
p368
S'http://footytweets.com/leicester_city/news/441002'
p369
sS'http://dilettantes.code4lib.org/blog/2010/07/what-we-talk-about-when-we-talk-about-love/'
p370
g370
sVhttp://t.co/QCh8ecw
p371
S'http://www.youtube.com/watch?v=NI9EmaruT0s&feature=share'
p372
sS'http://malcolmlandon.wordpress.com/2007/11/14/whos-cashing-in-on-the-wii-shortage/'
p373
g373
sS'http://blog.iandavis.com/2010/12/15/my-feedback-on-sparql-1-1-uniform-http-protocol-for-managing-rdf-graphs/'
p374
g374
sVhttp://t.co/NJYIw0N
p375
S'http://tabs.ultimate-guitar.com/m/misc_unsigned_bands/ross_singer_-_riff1_btab.htm'
p376
sS'http://fantasticlife.posterous.com/a-comment-for-node114'
p377
g377
sVhttp://bit.ly/eXkPLS
p378
S'http://www.daveyp.com/cgi-bin/crystal/ball.pl?1299246655'
p379
sS'http://www.oercommons.org/courses/farallon-plate-remnants'
p380
g380
sVhttp://t.co/pPJQTg8
p381
S'http://mac.github.com/'
p382
sS'http://informationtakesover.co.uk/2010/10/remove-the-dust-sheets/'
p383
g383
sS'http://www.virtualchaos.co.uk/blog/2009/07/19/were-hiring/'
p384
g384
sS'http://openplans.org/'
p385
g385
sS'http://itoccurs.wordpress.com/2008/04/14/canberra-to-sydney-by-the-scenic-route/'
p386
g386
sS'http://wonderfulworldofmrc.blogspot.com/2005/10/goggle-tagging.html'
p387
g387
sS'http://www.astilla.co.uk/blog/updated-aspire-list-editor'
p388
g388
sS'http://j.mp/nWM7v8'
p389
S'http://www.zurb.com/article/749/what-we-can-learn-from-7-complete-product?utm_source=feedburner&utm_medium=feed&utm_campaign=Feed%3A+zurb%2Fblog+%28ZURB%29'
p390
sS'http://t.co/9z7O8qU'
p391
S'http://www.wired.com/wiredscience/2010/03/heidegger-tools/'
p392
sVhttp://bit.ly/nLuEzD
p393
S'http://lrt.mmu.ac.uk/w2c/2011/07/27/our-new-moodle-theme/'
p394
sS'http://t.co/Un922tw'
p395
S'http://ckan.net/package/data-incubator-metoffice'
p396
sS'http://www.arduino.cc/cgi-bin/yabb2/YaBB.pl?num=1250658196'
p397
g397
sS'http://bit.ly/ruhxGn'
p398
S'http://bandofthebes.typepad.com/bandofthebes/2011/07/married-lesbian-couple-rescued-40-teens-from-norway-massacre.html'
p399
sS'http://www.virtualchaos.co.uk/blog/2009/06/14/webdriver/'
p400
g400
sS'http://j.mp/o'
p401
S'http://www.barackobama.com'
p402
sVhttp://t.co/mlO94el
p403
S'http://www.independent.co.uk/sport/football/news-and-comment/click-and-buy-how-scouting-embraced-the-21st-century-2326368.html'
p404
sS'http://www.astilla.co.uk/2009/12/kunisada-courtesan-japanese-woodblock-prints'
p405
g405
sS'http://dilettantes.code4lib.org/blog/2009/07/i-went-as-far-as-losing-slee/'
p406
g406
sS'http://en.wikipedia.org/wiki/Help:Wiki_markup'
p407
g407
sVhttp://www.legislation.gov.uk/ukpga/2000/36/schedule/1
p408
S'http://www.legislation.gov.uk/ukpga/2000/36/schedule/1/data.htm'
p409
sS'http://dilettantes.code4lib.org/blog/2010/08/faceted-search-on-a-shoestring/'
p410
g410
sS'http://www.virtualchaos.co.uk/blog/2009/03/19/lifes-too-short-write-fast-code/'
p411
g411
sS'http://beobal.com/blog/2007/01/five-whole-things'
p412
g412
sVhttp://t.co/94dhMef
p413
S'http://www.youtube.com/watch?v=COkya7N3pB8&feature=youtube_gdata_player'
p414
sS'http://mbostock.github.com/d3/'
p415
g415
sS'http://beobal.com/blog/2006/11/under-the-radar'
p416
g416
sS'http://malcolmlandon.wordpress.com/2007/11/14/bbc-reporting-wii-woo/'
p417
g417
sVhttp://t.co/WmuftGL
p418
S'http://blog.kasabi.com/2011/07/14/featured-dataset-foodista/'
p419
sS'http://www.youtube.com/watch?v=-jLxE_TP4SQ&feature'
p420
g420
sS'http://www.allaboutcircuits.com/vol_4/chpt_11/3.html'
p421
g421
sS'http://slashdotrobot.wordpress.com/2007/11/18/interior-tidyup-part-one/'
p422
g422
sS'http://www.squidi.net/three/entry.php?id=107'
p423
g423
sS'http://dilettantes.code4lib.org/blog/2010/03/getting-the-whole-story/'
p424
g424
sVhttp://t.co/OlkW59M
p425
S'http://www.regonline.com/Register/Checkin.aspx?EventID=962797'
p426
sVhttp://t.co/wkm6wIi
p427
S'http://www.itworld.com/it-managementstrategy/187543/when-google-kills-your-account-what-happens-your-android-phone'
p428
sS'http://slashdotrobot.wordpress.com/2008/05/18/where-did-the-paint-go/'
p429
g429
sVhttp://t.co/kjQCUXM
p430
S'http://www.lovelifeloverunning.co.uk/'
p431
sS'http://t.co/RFZdpOM'
p432
S'http://open.spotify.com/track/6SBrXbSNkPi9BYxjgZoi9a'
p433
sS'http://t.co/iJVAeZc'
p434
S'http://blog.kasabi.com/2011/06/22/open-government-hackday/'
p435
sVhttp://t.co/fDJZpFW
p436
S'http://www.getskeleton.com/'
p437
sS'http://www.virtualchaos.co.uk/blog/2010/06/27/education-is-a-global-religio/'
p438
g438
sS'http://julianhigman.com/blog/2010/06/16/google-maps-on-android-downloads-60mb-in-10-minutes/'
p439
g439
sS'http://t.co/QYG7eev'
p440
S'http://semanticweb.com/how-google-is-using-musicbrainz_b21832'
p441
sVhttp://bit.ly/lI3hgT
p442
S'http://tbe.taleo.net/NA9/ats/careers/requisition.jsp?org=TALIS&cws=1&rid=37'
p443
sS'http://itoccurs.wordpress.com/2008/04/05/breezing-in-to-melbourne/'
p444
g444
sS'http://tl.gd/767sgf'
p445
S'http://www.twitlonger.com/show/767sgf'
p446
sS'http://timhowgego.com/introduction-to-uk-local-public-transport-data.html'
p447
g447
sS'http://chem-bla-ics.blogspot.com/2011/07/chempedia-rdf-2-kasabi.html'
p448
g448
sS'http://www.justinleavesley.com/journal/2006/11/26/ive-been-away-for-a-while.html'
p449
g449
sS'http://t.co/BRATE16'
p450
S'http://gargoyle.wpm.iawhq.co.uk/2011/06/16/mac-os-x-lion-etchosts-file/#comment-35'
p451
sVhttp://t.co/PC9U6Qs
p452
S'http://yfrog.com/kixxzacj'
p453
sS'http://beobal.com/blog/2006/11/ibm-adtech-group-release-rdf-repository'
p454
g454
sS'http://dynamicorange.com/2011/04/11/in-summary-i-dont-like-writing-more-code-than-i-have-to/'
p455
g455
sS'http://t.co/164NhMD'
p456
S'http://www.cyclelicio.us/2011/illegal-parking-crushed-btr/'
p457
sVhttp://t.co/9WDYIqF
p458
S'http://beta.kasabi.com/dataset/mot-testing-stations'
p459
sS'http://data.gov.uk/dataset/naptan'
p460
g460
sS'http://julianhigman.com/blog/2009/03/19/validate-your-inputs/'
p461
g461
sS'http://wonderfulworldofmrc.blogspot.com/2007/01/young-librarians-of-future-podcast.html'
p462
g462
sVhttp://www.worldtimebuddy.com/?lid=2656173,5391959
p463
S'http://www.worldtimebuddy.com/'
p464
sS'http://www.virtualchaos.co.uk/blog/2009/10/02/karen-armstrong-lets-revive-the-golden-rule/'
p465
g465
sS'http://www.bbc.co.uk/news/education-14216167'
p466
g466
sS'http://j.mp/oFmeYC'
p467
S'http://consulting.talis.com/2011/07/should-seo-focus-in-on-linked-data/'
p468
sS'http://en.wikipedia.org/wiki/Field-programmable_gate_array'
p469
g469
sVhttp://t.co/hU8OkxE
p470
S'http://consulting.talis.com/2011/07/should-seo-focus-in-on-linked-data/'
p471
sS'http://www.slideshare.net/zbeauvais/openday-kasabi'
p472
g472
sS'http://rascalmicro.com/blog/'
p473
g473
sS'http://www.virtualchaos.co.uk/blog/2009/02/22/anime-reviews/'
p474
g474
sVhttp://bit.ly/oSdmmj
p475
S'http://reviews.cnet.co.uk/software-and-web-apps/how-to-create-ebooks-using-os-x-lion-50004548/prices/'
p476
sS'http://t.co/coG3VWi'
p477
S'http://www.simpleandusable.com/news/how-to-remove-the-faux-leather-in-ical-for-os-x-lion.html'
p478
sS'http://www.everaldo.com/crystal/?action=preview'
p479
g479
sS'http://www.atoc.org/about-atoc/rail-settlement-plan/data-feeds/cost'
p480
g480
sS'http://j.mp/rb8EIg'
p481
S'https://picasaweb.google.com/lh/photo/cArakN1Jan3SXZsl60OxDA'
p482
sS'http://www.virtualchaos.co.uk/blog/2009/07/19/philip-zimbardo-prescribes-a-healthy-take-on-time/'
p483
g483
sS'http://blog.iandavis.com/2011/07/07/big-ben/'
p484
g484
sS'http://www.zachbeauvais.com/archives/royal-reflections/'
p485
g485
sS'http://dilettantes.code4lib.org/blog/2009/08/where-is-the-outrage/'
p486
g486
sS'http://www.astilla.co.uk/blog/having-clear-out'
p487
g487
sS'http://beobal.com/blog/2007/05/flickr-twitter-on-asynchronicity'
p488
g488
sVhttp://t.co/g9c6io2
p489
S'http://blog.kasabi.com/2011/07/29/featured-dataset-iati/'
p490
sS'http://www.slideshare.net/sonnly/culture9090801103430phpapp02-1914140'
p491
g491
sS'http://www.zachbeauvais.com/archives/what-is-the-point-of-decaff/'
p492
g492
sS'http://www.iana.org/assignments/link-relations/link-relations.xml'
p493
g493
sS'http://ow.ly/5Jizv'
p494
S'http://onlinehelp.microsoft.com/en-us/bing/hh207238.aspx'
p495
sS'http://freespace.virgin.net/hugo.elias/graphics/x_main.htm'
p496
g496
sS'http://dilettantes.code4lib.org/blog/2009/08/supercharged-ruby-marc/'
p497
g497
sVhttp://bit.ly/pQ7CdG
p498
S'http://www.gameinformer.com/b/news/archive/2011/07/30/littlebigplanet-2-getting-toy-story-levels-and-costumes.aspx'
p499
sS'http://www.london-gazette.co.uk/issues/7379/pages/1'
p500
g500
sS'http://blog.kasabi.com/2011/07/22/featured-dataset-mta-new-york-city-transit/'
p501
g501
sS'http://www.youtube.com/watch?v=IJa235_AjnA&feature=related'
p502
g502
sS'http://malcolmlandon.wordpress.com/2008/01/30/svn-quick-reference-card/'
p503
g503
sS'http://www.gnupg.org/gph/en/manual.html'
p504
g504
sS'http://slashdotrobot.wordpress.com/2008/04/13/jero/'
p505
g505
sS'http://wonderfulworldofmrc.blogspot.com/2007/02/considering-data-conversion-in-agile.html'
p506
g506
sS'http://beobal.com/blog/2006/11/ning'
p507
g507
sS'http://malcolmlandon.wordpress.com/2007/09/28/forget-chasing-ambulances-chase-your-bank-manager/'
p508
g508
sVhttp://bit.ly/fhafwh
p509
S'http://www.daveyp.com/cgi-bin/crystal/ball.pl?1299246700'
p510
sS'http://dilettantes.code4lib.org/blog/2009/07/going-solr-without-solr/'
p511
g511
sS'http://zite.to/nyzacK'
p512
S'http://www.readwriteweb.com/archives/farewell_flash_adobe_launches_html5_web_animations_tool_adobe_edge.php'
p513
sS'http://itoccurs.wordpress.com/2008/04/11/hobart-mountain-river/'
p514
g514
sS'http://itoccurs.wordpress.com/2008/04/06/a-circular-tram-ride-and-one-to-the-beach/'
p515
g515
sS'http://t.co/OCYBQvD'
p516
S'http://yfrog.com/gzfiwrp'
p517
sS'http://tl.gd/767sk0'
p518
S'http://www.twitlonger.com/show/767sk0'
p519
sS'http://informationtakesover.co.uk/2010/04/library-funding/'
p520
g520
sVhttp://bit.ly/qSwBXP
p521
S'http://govinthelab.com/the-dangers-of-mandating-open-government-data/'
p522
sVhttp://t.co/ESYhhZg
p523
S'http://www.youtube.com/watch?v=jO0VLouJFNQ'
p524
sS'http://www.virtualchaos.co.uk/blog/2009/01/30/designing-innovation-networks-on-lifes-origins-and-evolution/'
p525
g525
sS'http://www.astilla.co.uk/blog/first-use-ipad'
p526
g526
sS'http://t.co/oppE5Ba'
p527
S'http://www.epsiplatform.eu/news/news/uk_government_plans_open_data_consultation/'
p528
sS'http://aksw.org/Projects/limes'
p529
g529
sS'http://uk.farnell.com/jsp/displayProduct.jsp?sku=1560812&CMP=e-2072-00001000'
p530
g530
sS'http://tl.gd/767s4s'
p531
S'http://www.twitlonger.com/show/767s4s'
p532
sVhttp://tools.ietf.org/html/rfc5988
p533
Vhttp://tools.ietf.org/html/rfc5988.html
p534
sS'http://www.astilla.co.uk/2009/09/more-ie7-cpu-spiking'
p535
g535
sS'http://bit.ly/q45p3u'
p536
S'http://blog.kasabi.com/2011/07/26/featured-datasets-nhs-organizations-and-performance-data/'
p537
sS'http://blog.iandavis.com/2010/11/08/instructions-from-our-new-iron-check-item-4/'
p538
g538
sS'http://www.slideshare.net/ldodds/kasabi-linked-data-marketplace'
p539
g539
sS'http://t.co/jHrTTBi'
p540
S'http://www.wikia.com/Wikia'
p541
sS'http://seatgeek.com/blog/dev/fuzzywuzzy-fuzzy-string-matching-in-python'
p542
g542
sVhttp://t.co/R31dPTS
p543
S'http://www.bbc.co.uk/news/technology-14322957?utm_source=twitterfeed&utm_medium=twitter'
p544
sS'http://www.allegro.cc/manual/4/'
p545
g545
sS'http://www.mikekarnj.com/blog/2011/08/01/how-to-launch-your-startup-idea-for-less-than-5k/'
p546
g546
sVhttp://j.mp/pOJavs
p547
S'http://techcrunch.com/2011/07/10/building-an-enterprise-software-company-that-doesnt-suck/'
p548
sVhttp://t.co/ii8o10j
p549
S'http://www.youtube.com/watch?v=sognAcZqFo4&feature=youtu.be'
p550
sVhttp://poss.gliderlab.com/
p551
S'http://poss.gliderlab.com/w/page/2018537/FrontPage'
p552
sS'http://www.neoclassicspace.com/'
p553
g553
sS'http://informationtakesover.co.uk/2010/10/academic-open-data/'
p554
g554
sVhttp://bit.ly/mnRwVq
p555
S'http://c561635.r35.cf2.rackcdn.com/11-944-WP-students-at-heart.pdf'
p556
sS'http://t.co/DUuiYY4'
p557
S'http://www.eventbrite.com/event/1906312833/estw'
p558
sS'http://del.icio.us/zachbeauvais#2009-05-19'
p559
S'http://www.delicious.com/zachbeauvais'
p560
sS'http://itoccurs.wordpress.com/2008/04/14/canberra/'
p561
g561
sS'http://dilettantes.code4lib.org/blog/2010/09/for-your-consideration-yet-another-marc-in-json-proposal-pt-1/'
p562
g562
sS'http://en.wikipedia.org/wiki/Curta_calculator'
p563
g563
sVhttp://t.co/e2ibxkR
p564
S'http://semanticweb.com/thoughts-on-google-plus-the-magic-isnt-social-its-semantic_b21852'
p565
sS'http://www.virtualchaos.co.uk/blog/2010/07/29/for-hecuba/'
p566
g566
sS'http://dynamicorange.com/2010/11/15/what-people-find-hard-about-linked-data/'
p567
g567
sS'http://blog.bumblebeelabs.com/social-software-sundays-2-the-evaporative-cooling-effect/'
p568
g568
sS'http://dilettantes.code4lib.org/blog/2010/09/a-proposal-to-serialize-marc-in-json/'
p569
g569
sS'http://read.bi/gK87cf.'
p570
S'http://www.businessinsider.com/6-ways-to-make-your-tv-smarter-2010-12'
p571
sS'http://del.icio.us/zachbeauvais#2009-04-04'
p572
S'http://www.delicious.com/zachbeauvais'
p573
sS'http://wonderfulworldofmrc.blogspot.com/2005/11/you-wont-find-heavy-metal-using-dobly.html'
p574
g574
sS'http://www.virtualchaos.co.uk/blog/2009/02/15/drop-in-javascript-performance/'
p575
g575
sVhttp://bit.ly/nWmKfE
p576
S'http://blog.palantirtech.com/2010/03/08/friction-in-human-computer-symbiosis-kasparov-on-chess/'
p577
sS'http://www.zachbeauvais.com/archives/fundamental_atheism/'
p578
g578
sVhttp://t.co/gBNDGtc
p579
S'http://www.instigatorblog.com/dont-code/2011/05/06/'
p580
sS'http://lazycrazy.deviantart.com/art/Lovely-website-icons-pack-1-132237340'
p581
g581
sS'http://dynamicorange.com/2010/10/14/no-named-graphs-%e2%80%94-period/'
p582
g582
sS'http://web.archive.org/web/20070701074943/http://blog.pmarca.com/2007/06/the-pmarca-gu-2.html'
p583
g583
sS'http://www.slideshare.net/ldodds/challenges-opportunities-for-linked-data'
p584
g584
sVhttp://techme.me/BmV2
p585
S'http://www.techmeme.com/110711/p2#a110711p2'
p586
sS'http://julianhigman.com/blog/2009/03/12/resetting-the-oil-service-light-on-a-2006-bmw-320i/'
p587
g587
sS'http://informationtakesover.co.uk/2010/02/library-offers-fee-tea-bag/'
p588
g588
sVhttp://t.co/W2elWir
p589
S'https://forums.aws.amazon.com/message.jspa?messageID=132032'
p590
sS'http://www.slideshare.net/ldodds/getting-started-with-the-talis-platform-presentation'
p591
g591
sS'http://dynamicorange.com/2010/07/12/flatten-it-without-collisions/'
p592
g592
sS'http://wonderfulworldofmrc.blogspot.com/2007/03/books-to-your-door-welcome-to.html'
p593
g593
sS'http://www.justinleavesley.com/journal/2005/8/7/schrdingers-web.html'
p594
g594
sVhttp://t.co/JqhsxtR
p595
S'http://twitpic.com/5xs1vy'
p596
sS'http://www.youtube.com/watch?v=52TxGLYmHmg'
p597
g597
sS'http://www.youtube.com/watch?v=ZD8RXjhTKZg&feature=related'
p598
g598
sS'http://www.transmissionzero.co.uk/radio/london-pirate-radio/'
p599
g599
sVhttp://t.co/vXv4CGr
p600
S'http://www.youtube.com/watch?v=C_Pk5EE5QV8'
p601
sS'http://tl.gd/767s8o'
p602
S'http://www.twitlonger.com/show/767s8o'
p603
sVhttp://t.co/DOBOnlk
p604
S'http://data.gov.uk/organogram'
p605
sS'http://www.justinleavesley.com/journal/2006/12/8/the-puzzle-of-semantic-web-adoption.html'
p606
g606
sS'http://t.co/vAdDTmS...'
p607
g607
sS'http://www.roughtrade.com/site/content.lasso?page=AOY_2010_11-100_v2.html'
p608
g608
sVhttp://bit.ly/qFimKA
p609
S'http://www.talisaspire.com/2011/07/12/campus-edition-new-features-april-june-2011/'
p610
sS'http://wonderfulworldofmrc.blogspot.com/2007/01/clusty.html'
p611
g611
sVhttp://bit.ly/qHcuGd
p612
S'http://www.talisaspire.com/newsletter/july-2011/'
p613
sS'http://blog.programmableweb.com/2011/06/08/kasabi-helps-take-data-as-a-service-to-a-new-level/'
p614
g614
sVhttp://bit.ly/j
p615
S'http://www.justinrummel.com/'
p616
sS'http://www.justinleavesley.com/journal/2008/8/7/essay-is-big-business-heading-for-mass-extinction.html'
p617
g617
sS'http://del.icio.us/zachbeauvais#2009-02-13'
p618
S'http://www.delicious.com/zachbeauvais'
p619
sS'http://wonderfulworldofmrc.blogspot.com/2005/09/web-20-and-globalisation.html'
p620
g620
sS'http://uservoice.com/'
p621
g621
sS'http://semanticweb.com/kasabi-sees-a-business-model-in-rdf-data_b21385'
p622
g622
sS'http://slashdotrobot.wordpress.com/2007/12/17/run-out-of-rust-luck/'
p623
g623
sVhttp://natpo.st/qPzOPd
p624
S'http://business.financialpost.com/2011/07/28/u-s-balance-now-less-than-apple-cash/'
p625
sS'http://wonderfulworldofmrc.blogspot.com/2005/08/now-thats-what-i-call-technology.html'
p626
g626
sVhttp://t.co/MZQEULq
p627
S'http://blog.kasabi.com/2011/07/26/featured-datasets-nhs-organizations-and-performance-data/'
p628
sS'http://data.gov.uk/dataset/ukcp09-gridded-annual-datasets-of-rainfall-intensity-on-days-of-rain'
p629
g629
sVhttp://gowal.la/c/4AfwK
p630
S'http://gowalla.com/checkins/40632175'
p631
sS'http://wurfl.sourceforge.net/'
p632
g632
sVhttp://bit.ly/nxz42o
p633
S'http://www.talisaspire.com/2011/07/21/related-content-widget/'
p634
sS'http://www.virtualchaos.co.uk/blog/2009/03/12/the-sixth-sense-wearable-tech/'
p635
g635
sVhttp://t.co/iSQEOgZ
p636
S'http://blog.pachube.com/2011/05/crowdsourcing-open-data-evolving-into.html'
p637
sS'http://youtu.be/qt'
p638
g638
sS'http://www.virtualchaos.co.uk/blog/2009/07/19/rdfquery-10-released/'
p639
g639
sS'http://beobal.com/blog/2006/11/enterprise-20-mashups'
p640
g640
sS'http://wonderfulworldofmrc.blogspot.com/2007/01/reader-development-is-so-important.html'
p641
g641
sS'http://malcolmlandon.wordpress.com/2008/08/07/ben-vs-the-ninja-dude/'
p642
g642
sS'http://code.google.com/p/porpoise/'
p643
g643
sS'http://www.virtualchaos.co.uk/blog/2009/03/16/tim-berners-lee-the-next-web-of-open-linked-data/'
p644
g644
sVhttp://t.co/ZBJ7UMD
p645
S'http://blog.iandavis.com/2011/07/18/kasabi-transit-data-for-new-york-city/'
p646
sS'https://www.develer.com/trac/dspython/browser/trunk/libnds-src-20070503/include/nds/arm9?rev=10'
p647
g647
sS'http://www.astilla.co.uk/blog/i-think-i-have-enough-drupal-installs-now'
p648
g648
sVhttp://t.co/RhiLEaO
p649
S'http://www.youtube.com/watch?v=kdnwDbe16MQ&feature=share'
p650
sS'http://informationtakesover.co.uk/2010/10/watching-the-semantic-web-come-alive/'
p651
g651
sS'http://julianhigman.com/blog/2010/09/17/ubuntu-and-cloudinit-on-amazon-ec2/'
p652
g652
sS'http://instagr.am/p/JDhsE/'
p653
g653
sS'http://wonderfulworldofmrc.blogspot.com/2007/02/changing-relationship-between.html'
p654
g654
sS'http://regionalanalysislab.org/?n=PySAL'
p655
g655
sS'http://www.vimeo.com/1132937'
p656
g656
sVhttp://t.co/BSFNCVG
p657
S'http://en.wikipedia.org/wiki/John_Craven'
p658
sS'http://www.bbc.co.uk/food/recipes/peppermint_creams_00124'
p659
g659
sS'http://malcolmlandon.wordpress.com/2008/09/05/protobuf-linking-error/'
p660
g660
sS'http://www.slideshare.net/ldodds/web-integrated-data'
p661
g661
sS'http://wonderfulworldofmrc.blogspot.com/2006/02/resource-discovery-posts.html'
p662
g662
sS'http://informationtakesover.co.uk/2010/03/outlook-to-skype-sms/'
p663
g663
sVhttp://bit.ly/mVZcy0
p664
S'http://blog.josema.net/2011/07/24/transition-wf/'
p665
sS'http://www.ftrain.com/wwic.html'
p666
g666
s.